
/home/meowth/ysyx/ysyx-workbench/am-kernels/tests/cpu-tests/build/fib-riscv32-nemu.elf:     file format elf32-littleriscv


Disassembly of section .text:

80000000 <_start>:
80000000:	00000413          	li	s0,0
80000004:	00009117          	auipc	sp,0x9
80000008:	ffc10113          	addi	sp,sp,-4 # 80009000 <_end>
8000000c:	104000ef          	jal	ra,80000110 <_trm_init>

80000010 <check>:
80000010:	00050463          	beqz	a0,80000018 <check+0x8>
80000014:	00008067          	ret
80000018:	ff010113          	addi	sp,sp,-16
8000001c:	00100513          	li	a0,1
80000020:	00112623          	sw	ra,12(sp)
80000024:	0e0000ef          	jal	ra,80000104 <halt>

80000028 <main>:
80000028:	ea010113          	addi	sp,sp,-352
8000002c:	09800613          	li	a2,152
80000030:	00000593          	li	a1,0
80000034:	00810513          	addi	a0,sp,8
80000038:	14112e23          	sw	ra,348(sp)
8000003c:	14812c23          	sw	s0,344(sp)
80000040:	14912a23          	sw	s1,340(sp)
80000044:	15212823          	sw	s2,336(sp)
80000048:	15312623          	sw	s3,332(sp)
8000004c:	0e4000ef          	jal	ra,80000130 <memset>
80000050:	00100793          	li	a5,1
80000054:	00f12023          	sw	a5,0(sp)
80000058:	00f12223          	sw	a5,4(sp)
8000005c:	0a010713          	addi	a4,sp,160
80000060:	00000797          	auipc	a5,0x0
80000064:	0f078793          	addi	a5,a5,240 # 80000150 <_etext>
80000068:	00000817          	auipc	a6,0x0
8000006c:	18880813          	addi	a6,a6,392 # 800001f0 <mainargs>
80000070:	0007a503          	lw	a0,0(a5)
80000074:	0047a583          	lw	a1,4(a5)
80000078:	0087a603          	lw	a2,8(a5)
8000007c:	00c7a683          	lw	a3,12(a5)
80000080:	00a72023          	sw	a0,0(a4)
80000084:	00b72223          	sw	a1,4(a4)
80000088:	00c72423          	sw	a2,8(a4)
8000008c:	00d72623          	sw	a3,12(a4)
80000090:	01078793          	addi	a5,a5,16
80000094:	01070713          	addi	a4,a4,16
80000098:	fd079ce3          	bne	a5,a6,80000070 <main+0x48>
8000009c:	0a810913          	addi	s2,sp,168
800000a0:	00810413          	addi	s0,sp,8
800000a4:	09c10993          	addi	s3,sp,156
800000a8:	00100793          	li	a5,1
800000ac:	00100493          	li	s1,1
800000b0:	00c0006f          	j	800000bc <main+0x94>
800000b4:	ffc42783          	lw	a5,-4(s0)
800000b8:	00440413          	addi	s0,s0,4
800000bc:	00092503          	lw	a0,0(s2)
800000c0:	00f484b3          	add	s1,s1,a5
800000c4:	00942023          	sw	s1,0(s0)
800000c8:	40950533          	sub	a0,a0,s1
800000cc:	00153513          	seqz	a0,a0
800000d0:	f41ff0ef          	jal	ra,80000010 <check>
800000d4:	00490913          	addi	s2,s2,4
800000d8:	fd341ee3          	bne	s0,s3,800000b4 <main+0x8c>
800000dc:	00100513          	li	a0,1
800000e0:	f31ff0ef          	jal	ra,80000010 <check>
800000e4:	15c12083          	lw	ra,348(sp)
800000e8:	15812403          	lw	s0,344(sp)
800000ec:	15412483          	lw	s1,340(sp)
800000f0:	15012903          	lw	s2,336(sp)
800000f4:	14c12983          	lw	s3,332(sp)
800000f8:	00000513          	li	a0,0
800000fc:	16010113          	addi	sp,sp,352
80000100:	00008067          	ret

80000104 <halt>:
80000104:	00050513          	mv	a0,a0
80000108:	00100073          	ebreak
8000010c:	0000006f          	j	8000010c <halt+0x8>

80000110 <_trm_init>:
80000110:	ff010113          	addi	sp,sp,-16
80000114:	00000517          	auipc	a0,0x0
80000118:	0dc50513          	addi	a0,a0,220 # 800001f0 <mainargs>
8000011c:	00112623          	sw	ra,12(sp)
80000120:	f09ff0ef          	jal	ra,80000028 <main>
80000124:	00050513          	mv	a0,a0
80000128:	00100073          	ebreak
8000012c:	0000006f          	j	8000012c <_trm_init+0x1c>

80000130 <memset>:
80000130:	0ff5f593          	zext.b	a1,a1
80000134:	00050793          	mv	a5,a0
80000138:	00a60733          	add	a4,a2,a0
8000013c:	00060863          	beqz	a2,8000014c <memset+0x1c>
80000140:	00b78023          	sb	a1,0(a5)
80000144:	00178793          	addi	a5,a5,1
80000148:	fee79ce3          	bne	a5,a4,80000140 <memset+0x10>
8000014c:	00008067          	ret
