
/home/meowth/ysyx/ysyx-workbench/am-kernels/tests/cpu-tests/build/matrix-mul-riscv32e-ysyx-soc.elf:     file format elf32-littleriscv


Disassembly of section .text.bootloader:

30000000 <_start>:
30000000:	00000413          	li	s0,0
30000004:	df002117          	auipc	sp,0xdf002
30000008:	efc10113          	addi	sp,sp,-260 # f001f00 <_stack_pointer>
3000000c:	004000ef          	jal	ra,30000010 <bootloader_load>

30000010 <bootloader_load>:
30000010:	ff410113          	addi	sp,sp,-12
30000014:	50000797          	auipc	a5,0x50000
30000018:	66c78793          	addi	a5,a5,1644 # 80000680 <c>
3000001c:	50000717          	auipc	a4,0x50000
30000020:	fe470713          	addi	a4,a4,-28 # 80000000 <check>
30000024:	00112423          	sw	ra,8(sp)
30000028:	40e78633          	sub	a2,a5,a4
3000002c:	02e78263          	beq	a5,a4,30000050 <bootloader_load+0x40>
30000030:	00000797          	auipc	a5,0x0
30000034:	05078793          	addi	a5,a5,80 # 30000080 <_ebootloader_load>
30000038:	00f60633          	add	a2,a2,a5
3000003c:	0007c683          	lbu	a3,0(a5)
30000040:	00178793          	addi	a5,a5,1
30000044:	00170713          	addi	a4,a4,1
30000048:	fed70fa3          	sb	a3,-1(a4)
3000004c:	fec798e3          	bne	a5,a2,3000003c <bootloader_load+0x2c>
30000050:	50000697          	auipc	a3,0x50000
30000054:	7c068693          	addi	a3,a3,1984 # 80000810 <_bss_end>
30000058:	50000797          	auipc	a5,0x50000
3000005c:	62878793          	addi	a5,a5,1576 # 80000680 <c>
30000060:	40f68733          	sub	a4,a3,a5
30000064:	00f68a63          	beq	a3,a5,30000078 <bootloader_load+0x68>
30000068:	00e78733          	add	a4,a5,a4
3000006c:	00078023          	sb	zero,0(a5)
30000070:	00178793          	addi	a5,a5,1
30000074:	fef71ce3          	bne	a4,a5,3000006c <bootloader_load+0x5c>
30000078:	50000097          	auipc	ra,0x50000
3000007c:	0b8080e7          	jalr	184(ra) # 80000130 <_trm_init>

Disassembly of section .text:

80000000 <check>:
80000000:	00050463          	beqz	a0,80000008 <check+0x8>
80000004:	00008067          	ret
80000008:	ff410113          	addi	sp,sp,-12
8000000c:	00100513          	li	a0,1
80000010:	00112423          	sw	ra,8(sp)
80000014:	114000ef          	jal	ra,80000128 <halt>

80000018 <main>:
80000018:	fe010113          	addi	sp,sp,-32
8000001c:	00112e23          	sw	ra,28(sp)
80000020:	00812c23          	sw	s0,24(sp)
80000024:	00912a23          	sw	s1,20(sp)
80000028:	00012823          	sw	zero,16(sp)
8000002c:	00000797          	auipc	a5,0x0
80000030:	65478793          	addi	a5,a5,1620 # 80000680 <c>
80000034:	00f12223          	sw	a5,4(sp)
80000038:	01012783          	lw	a5,16(sp)
8000003c:	00f12423          	sw	a5,8(sp)
80000040:	00812703          	lw	a4,8(sp)
80000044:	00000797          	auipc	a5,0x0
80000048:	63c78793          	addi	a5,a5,1596 # 80000680 <c>
8000004c:	00000493          	li	s1,0
80000050:	00e787b3          	add	a5,a5,a4
80000054:	01012703          	lw	a4,16(sp)
80000058:	00f12623          	sw	a5,12(sp)
8000005c:	00000797          	auipc	a5,0x0
80000060:	17478793          	addi	a5,a5,372 # 800001d0 <a>
80000064:	00e78733          	add	a4,a5,a4
80000068:	00412783          	lw	a5,4(sp)
8000006c:	e7078413          	addi	s0,a5,-400
80000070:	00072503          	lw	a0,0(a4)
80000074:	00042583          	lw	a1,0(s0)
80000078:	00470713          	addi	a4,a4,4
8000007c:	00e12023          	sw	a4,0(sp)
80000080:	0ec000ef          	jal	ra,8000016c <__mulsi3>
80000084:	00412783          	lw	a5,4(sp)
80000088:	02840413          	addi	s0,s0,40
8000008c:	00012703          	lw	a4,0(sp)
80000090:	00a484b3          	add	s1,s1,a0
80000094:	fcf41ee3          	bne	s0,a5,80000070 <main+0x58>
80000098:	00812783          	lw	a5,8(sp)
8000009c:	00000717          	auipc	a4,0x0
800000a0:	2c470713          	addi	a4,a4,708 # 80000360 <ans>
800000a4:	00440413          	addi	s0,s0,4
800000a8:	00f70733          	add	a4,a4,a5
800000ac:	00072503          	lw	a0,0(a4)
800000b0:	00c12703          	lw	a4,12(sp)
800000b4:	00812223          	sw	s0,4(sp)
800000b8:	40950533          	sub	a0,a0,s1
800000bc:	00972023          	sw	s1,0(a4)
800000c0:	00153513          	seqz	a0,a0
800000c4:	f3dff0ef          	jal	ra,80000000 <check>
800000c8:	00100513          	li	a0,1
800000cc:	f35ff0ef          	jal	ra,80000000 <check>
800000d0:	00812783          	lw	a5,8(sp)
800000d4:	00478793          	addi	a5,a5,4
800000d8:	00f12423          	sw	a5,8(sp)
800000dc:	00000797          	auipc	a5,0x0
800000e0:	5cc78793          	addi	a5,a5,1484 # 800006a8 <c+0x28>
800000e4:	f4879ee3          	bne	a5,s0,80000040 <main+0x28>
800000e8:	00100513          	li	a0,1
800000ec:	f15ff0ef          	jal	ra,80000000 <check>
800000f0:	01012783          	lw	a5,16(sp)
800000f4:	02878793          	addi	a5,a5,40
800000f8:	00078713          	mv	a4,a5
800000fc:	00f12823          	sw	a5,16(sp)
80000100:	19000793          	li	a5,400
80000104:	f2f714e3          	bne	a4,a5,8000002c <main+0x14>
80000108:	00100513          	li	a0,1
8000010c:	ef5ff0ef          	jal	ra,80000000 <check>
80000110:	01c12083          	lw	ra,28(sp)
80000114:	01812403          	lw	s0,24(sp)
80000118:	01412483          	lw	s1,20(sp)
8000011c:	00000513          	li	a0,0
80000120:	02010113          	addi	sp,sp,32
80000124:	00008067          	ret

80000128 <halt>:
80000128:	00100073          	ebreak
8000012c:	0000006f          	j	8000012c <halt+0x4>

80000130 <_trm_init>:
80000130:	ff410113          	addi	sp,sp,-12
80000134:	00112423          	sw	ra,8(sp)
80000138:	100007b7          	lui	a5,0x10000
8000013c:	f8000713          	li	a4,-128
80000140:	00e781a3          	sb	a4,3(a5) # 10000003 <_stack_pointer+0xffe103>
80000144:	00100713          	li	a4,1
80000148:	00e78023          	sb	a4,0(a5)
8000014c:	000780a3          	sb	zero,1(a5)
80000150:	00300713          	li	a4,3
80000154:	00e781a3          	sb	a4,3(a5)
80000158:	00000517          	auipc	a0,0x0
8000015c:	03850513          	addi	a0,a0,56 # 80000190 <_etext>
80000160:	eb9ff0ef          	jal	ra,80000018 <main>
80000164:	00100073          	ebreak
80000168:	0000006f          	j	80000168 <_trm_init+0x38>

8000016c <__mulsi3>:
8000016c:	00050613          	mv	a2,a0
80000170:	00000513          	li	a0,0
80000174:	0015f693          	andi	a3,a1,1
80000178:	00068463          	beqz	a3,80000180 <__mulsi3+0x14>
8000017c:	00c50533          	add	a0,a0,a2
80000180:	0015d593          	srli	a1,a1,0x1
80000184:	00161613          	slli	a2,a2,0x1
80000188:	fe0596e3          	bnez	a1,80000174 <__mulsi3+0x8>
8000018c:	00008067          	ret
