
/home/meowth/ysyx/ysyx-workbench/am-kernels/tests/mem-tests/build/mem-test-sdram-riscv32e-ysyx-soc.elf:     file format elf32-littleriscv


Disassembly of section .text.fsbl:

30000000 <_start>:
30000000:	00000413          	li	s0,0
30000004:	df002117          	auipc	sp,0xdf002
30000008:	afc10113          	addi	sp,sp,-1284 # f001b00 <_stack_pointer>
3000000c:	004000ef          	jal	ra,30000010 <fsbl_load>

30000010 <fsbl_load>:
30000010:	ff410113          	addi	sp,sp,-12
30000014:	00112423          	sw	ra,8(sp)
30000018:	70000317          	auipc	t1,0x70000
3000001c:	fe830313          	addi	t1,t1,-24 # a0000000 <ssbl_load>
30000020:	70000597          	auipc	a1,0x70000
30000024:	04458593          	addi	a1,a1,68 # a0000064 <check>
30000028:	00000517          	auipc	a0,0x0
3000002c:	04050513          	addi	a0,a0,64 # 30000068 <_efsbl_load>
30000030:	02b37863          	bgeu	t1,a1,30000060 <fsbl_load+0x50>
30000034:	00030793          	mv	a5,t1
30000038:	00050693          	mv	a3,a0
3000003c:	0006c703          	lbu	a4,0(a3)
30000040:	00078613          	mv	a2,a5
30000044:	00178793          	addi	a5,a5,1
30000048:	0ff77713          	zext.b	a4,a4
3000004c:	00e60023          	sb	a4,0(a2)
30000050:	00168693          	addi	a3,a3,1
30000054:	feb794e3          	bne	a5,a1,3000003c <fsbl_load+0x2c>
30000058:	406787b3          	sub	a5,a5,t1
3000005c:	00f50533          	add	a0,a0,a5
30000060:	70000097          	auipc	ra,0x70000
30000064:	fa0080e7          	jalr	-96(ra) # a0000000 <ssbl_load>

Disassembly of section .text.ssbl:

a0000000 <ssbl_load>:
a0000000:	ff410113          	addi	sp,sp,-12
a0000004:	00112423          	sw	ra,8(sp)
a0000008:	00000797          	auipc	a5,0x0
a000000c:	05c78793          	addi	a5,a5,92 # a0000064 <_essbl_load>
a0000010:	00000617          	auipc	a2,0x0
a0000014:	22060613          	addi	a2,a2,544 # a0000230 <_bss_end>
a0000018:	02c7f063          	bgeu	a5,a2,a0000038 <ssbl_load+0x38>
a000001c:	00054703          	lbu	a4,0(a0)
a0000020:	00078693          	mv	a3,a5
a0000024:	00178793          	addi	a5,a5,1
a0000028:	0ff77713          	zext.b	a4,a4
a000002c:	00e68023          	sb	a4,0(a3)
a0000030:	00150513          	addi	a0,a0,1
a0000034:	fec794e3          	bne	a5,a2,a000001c <ssbl_load+0x1c>
a0000038:	00000697          	auipc	a3,0x0
a000003c:	1f868693          	addi	a3,a3,504 # a0000230 <_bss_end>
a0000040:	00000797          	auipc	a5,0x0
a0000044:	1f078793          	addi	a5,a5,496 # a0000230 <_bss_end>
a0000048:	40f68733          	sub	a4,a3,a5
a000004c:	00f68a63          	beq	a3,a5,a0000060 <ssbl_load+0x60>
a0000050:	00e78733          	add	a4,a5,a4
a0000054:	00078023          	sb	zero,0(a5)
a0000058:	00178793          	addi	a5,a5,1
a000005c:	fef71ce3          	bne	a4,a5,a0000054 <ssbl_load+0x54>
a0000060:	0c0000ef          	jal	ra,a0000120 <_trm_init>

Disassembly of section .text:

a0000064 <check>:
a0000064:	00050463          	beqz	a0,a000006c <check+0x8>
a0000068:	00008067          	ret
a000006c:	ff410113          	addi	sp,sp,-12
a0000070:	00100513          	li	a0,1
a0000074:	00112423          	sw	ra,8(sp)
a0000078:	0a0000ef          	jal	ra,a0000118 <halt>

a000007c <main>:
a000007c:	ff410113          	addi	sp,sp,-12
a0000080:	00000797          	auipc	a5,0x0
a0000084:	1b078793          	addi	a5,a5,432 # a0000230 <_bss_end>
a0000088:	00812223          	sw	s0,4(sp)
a000008c:	00001417          	auipc	s0,0x1
a0000090:	1a440413          	addi	s0,s0,420 # a0001230 <_sdram_end>
a0000094:	40f40433          	sub	s0,s0,a5
a0000098:	0c800593          	li	a1,200
a000009c:	00040513          	mv	a0,s0
a00000a0:	00112423          	sw	ra,8(sp)
a00000a4:	00912023          	sw	s1,0(sp)
a00000a8:	09c000ef          	jal	ra,a0000144 <__hidden___udivsi3>
a00000ac:	0c700793          	li	a5,199
a00000b0:	0487f863          	bgeu	a5,s0,a0000100 <main+0x84>
a00000b4:	00050493          	mv	s1,a0
a00000b8:	00000717          	auipc	a4,0x0
a00000bc:	17870713          	addi	a4,a4,376 # a0000230 <_bss_end>
a00000c0:	00000793          	li	a5,0
a00000c4:	00f70023          	sb	a5,0(a4)
a00000c8:	00178793          	addi	a5,a5,1
a00000cc:	00170713          	addi	a4,a4,1
a00000d0:	fe97eae3          	bltu	a5,s1,a00000c4 <main+0x48>
a00000d4:	00000413          	li	s0,0
a00000d8:	00000797          	auipc	a5,0x0
a00000dc:	15878793          	addi	a5,a5,344 # a0000230 <_bss_end>
a00000e0:	008787b3          	add	a5,a5,s0
a00000e4:	0007c503          	lbu	a0,0(a5)
a00000e8:	0ff47793          	zext.b	a5,s0
a00000ec:	00140413          	addi	s0,s0,1
a00000f0:	40f50533          	sub	a0,a0,a5
a00000f4:	00153513          	seqz	a0,a0
a00000f8:	f6dff0ef          	jal	ra,a0000064 <check>
a00000fc:	fc946ee3          	bltu	s0,s1,a00000d8 <main+0x5c>
a0000100:	00812083          	lw	ra,8(sp)
a0000104:	00412403          	lw	s0,4(sp)
a0000108:	00012483          	lw	s1,0(sp)
a000010c:	00000513          	li	a0,0
a0000110:	00c10113          	addi	sp,sp,12
a0000114:	00008067          	ret

a0000118 <halt>:
a0000118:	00100073          	ebreak
a000011c:	0000006f          	j	a000011c <halt+0x4>

a0000120 <_trm_init>:
a0000120:	ff410113          	addi	sp,sp,-12
a0000124:	00000517          	auipc	a0,0x0
a0000128:	0cc50513          	addi	a0,a0,204 # a00001f0 <_etext>
a000012c:	00112423          	sw	ra,8(sp)
a0000130:	f4dff0ef          	jal	ra,a000007c <main>
a0000134:	00100073          	ebreak
a0000138:	0000006f          	j	a0000138 <_trm_init+0x18>

a000013c <__divsi3>:
a000013c:	06054063          	bltz	a0,a000019c <__umodsi3+0x10>
a0000140:	0605c663          	bltz	a1,a00001ac <__umodsi3+0x20>

a0000144 <__hidden___udivsi3>:
a0000144:	00058613          	mv	a2,a1
a0000148:	00050593          	mv	a1,a0
a000014c:	fff00513          	li	a0,-1
a0000150:	02060c63          	beqz	a2,a0000188 <__hidden___udivsi3+0x44>
a0000154:	00100693          	li	a3,1
a0000158:	00b67a63          	bgeu	a2,a1,a000016c <__hidden___udivsi3+0x28>
a000015c:	00c05863          	blez	a2,a000016c <__hidden___udivsi3+0x28>
a0000160:	00161613          	slli	a2,a2,0x1
a0000164:	00169693          	slli	a3,a3,0x1
a0000168:	feb66ae3          	bltu	a2,a1,a000015c <__hidden___udivsi3+0x18>
a000016c:	00000513          	li	a0,0
a0000170:	00c5e663          	bltu	a1,a2,a000017c <__hidden___udivsi3+0x38>
a0000174:	40c585b3          	sub	a1,a1,a2
a0000178:	00d56533          	or	a0,a0,a3
a000017c:	0016d693          	srli	a3,a3,0x1
a0000180:	00165613          	srli	a2,a2,0x1
a0000184:	fe0696e3          	bnez	a3,a0000170 <__hidden___udivsi3+0x2c>
a0000188:	00008067          	ret

a000018c <__umodsi3>:
a000018c:	00008293          	mv	t0,ra
a0000190:	fb5ff0ef          	jal	ra,a0000144 <__hidden___udivsi3>
a0000194:	00058513          	mv	a0,a1
a0000198:	00028067          	jr	t0
a000019c:	40a00533          	neg	a0,a0
a00001a0:	00b04863          	bgtz	a1,a00001b0 <__umodsi3+0x24>
a00001a4:	40b005b3          	neg	a1,a1
a00001a8:	f9dff06f          	j	a0000144 <__hidden___udivsi3>
a00001ac:	40b005b3          	neg	a1,a1
a00001b0:	00008293          	mv	t0,ra
a00001b4:	f91ff0ef          	jal	ra,a0000144 <__hidden___udivsi3>
a00001b8:	40a00533          	neg	a0,a0
a00001bc:	00028067          	jr	t0

a00001c0 <__modsi3>:
a00001c0:	00008293          	mv	t0,ra
a00001c4:	0005ca63          	bltz	a1,a00001d8 <__modsi3+0x18>
a00001c8:	00054c63          	bltz	a0,a00001e0 <__modsi3+0x20>
a00001cc:	f79ff0ef          	jal	ra,a0000144 <__hidden___udivsi3>
a00001d0:	00058513          	mv	a0,a1
a00001d4:	00028067          	jr	t0
a00001d8:	40b005b3          	neg	a1,a1
a00001dc:	fe0558e3          	bgez	a0,a00001cc <__modsi3+0xc>
a00001e0:	40a00533          	neg	a0,a0
a00001e4:	f61ff0ef          	jal	ra,a0000144 <__hidden___udivsi3>
a00001e8:	40b00533          	neg	a0,a1
a00001ec:	00028067          	jr	t0
