
/home/meowth/ysyx/ysyx-workbench/am-kernels/tests/cpu-tests/build/div-riscv32-nemu.elf:     file format elf32-littleriscv


Disassembly of section .text:

80000000 <_start>:
80000000:	00000413          	li	s0,0
80000004:	00009117          	auipc	sp,0x9
80000008:	ffc10113          	addi	sp,sp,-4 # 80009000 <_end>
8000000c:	0f0000ef          	jal	ra,800000fc <_trm_init>

80000010 <check>:
80000010:	00050463          	beqz	a0,80000018 <check+0x8>
80000014:	00008067          	ret
80000018:	ff010113          	addi	sp,sp,-16
8000001c:	00100513          	li	a0,1
80000020:	00112623          	sw	ra,12(sp)
80000024:	0cc000ef          	jal	ra,800000f0 <halt>

80000028 <main>:
80000028:	fc010113          	addi	sp,sp,-64
8000002c:	02912a23          	sw	s1,52(sp)
80000030:	00810493          	addi	s1,sp,8
80000034:	02112e23          	sw	ra,60(sp)
80000038:	02812c23          	sw	s0,56(sp)
8000003c:	03212823          	sw	s2,48(sp)
80000040:	00048713          	mv	a4,s1
80000044:	00000793          	li	a5,0
80000048:	00a00693          	li	a3,10
8000004c:	00f72023          	sw	a5,0(a4)
80000050:	00178793          	addi	a5,a5,1
80000054:	00470713          	addi	a4,a4,4
80000058:	fed79ae3          	bne	a5,a3,8000004c <main+0x24>
8000005c:	02848593          	addi	a1,s1,40
80000060:	00048613          	mv	a2,s1
80000064:	00b00693          	li	a3,11
80000068:	00062703          	lw	a4,0(a2)
8000006c:	00100793          	li	a5,1
80000070:	02f70733          	mul	a4,a4,a5
80000074:	00178793          	addi	a5,a5,1
80000078:	fed79ce3          	bne	a5,a3,80000070 <main+0x48>
8000007c:	00e62023          	sw	a4,0(a2)
80000080:	00460613          	addi	a2,a2,4
80000084:	feb612e3          	bne	a2,a1,80000068 <main+0x40>
80000088:	00048613          	mv	a2,s1
8000008c:	00b00693          	li	a3,11
80000090:	00062703          	lw	a4,0(a2)
80000094:	00100793          	li	a5,1
80000098:	02f74733          	div	a4,a4,a5
8000009c:	00178793          	addi	a5,a5,1
800000a0:	fed79ce3          	bne	a5,a3,80000098 <main+0x70>
800000a4:	00e62023          	sw	a4,0(a2)
800000a8:	00460613          	addi	a2,a2,4
800000ac:	feb612e3          	bne	a2,a1,80000090 <main+0x68>
800000b0:	00000413          	li	s0,0
800000b4:	00a00913          	li	s2,10
800000b8:	0004a503          	lw	a0,0(s1)
800000bc:	00448493          	addi	s1,s1,4
800000c0:	40850533          	sub	a0,a0,s0
800000c4:	00153513          	seqz	a0,a0
800000c8:	00140413          	addi	s0,s0,1
800000cc:	f45ff0ef          	jal	ra,80000010 <check>
800000d0:	ff2414e3          	bne	s0,s2,800000b8 <main+0x90>
800000d4:	03c12083          	lw	ra,60(sp)
800000d8:	03812403          	lw	s0,56(sp)
800000dc:	03412483          	lw	s1,52(sp)
800000e0:	03012903          	lw	s2,48(sp)
800000e4:	00000513          	li	a0,0
800000e8:	04010113          	addi	sp,sp,64
800000ec:	00008067          	ret

800000f0 <halt>:
800000f0:	00050513          	mv	a0,a0
800000f4:	00100073          	ebreak
800000f8:	0000006f          	j	800000f8 <halt+0x8>

800000fc <_trm_init>:
800000fc:	ff010113          	addi	sp,sp,-16
80000100:	00000517          	auipc	a0,0x0
80000104:	01c50513          	addi	a0,a0,28 # 8000011c <_etext>
80000108:	00112623          	sw	ra,12(sp)
8000010c:	f1dff0ef          	jal	ra,80000028 <main>
80000110:	00050513          	mv	a0,a0
80000114:	00100073          	ebreak
80000118:	0000006f          	j	80000118 <_trm_init+0x1c>
