
/home/meowth/ysyx/ysyx-workbench/am-kernels/tests/cpu-tests/build/fact-riscv32e-ysyx-soc.elf:     file format elf32-littleriscv


Disassembly of section .text.fsbl:

30000000 <_start>:
30000000:	00000413          	li	s0,0
30000004:	df002117          	auipc	sp,0xdf002
30000008:	afc10113          	addi	sp,sp,-1284 # f001b00 <_stack_pointer>
3000000c:	004000ef          	jal	ra,30000010 <fsbl_load>

30000010 <fsbl_load>:
30000010:	ff410113          	addi	sp,sp,-12
30000014:	00112423          	sw	ra,8(sp)
30000018:	70000317          	auipc	t1,0x70000
3000001c:	fe830313          	addi	t1,t1,-24 # a0000000 <ssbl_load>
30000020:	70000597          	auipc	a1,0x70000
30000024:	04458593          	addi	a1,a1,68 # a0000064 <check>
30000028:	00000517          	auipc	a0,0x0
3000002c:	04050513          	addi	a0,a0,64 # 30000068 <_efsbl_load>
30000030:	02b37863          	bgeu	t1,a1,30000060 <fsbl_load+0x50>
30000034:	00030793          	mv	a5,t1
30000038:	00050693          	mv	a3,a0
3000003c:	0006c703          	lbu	a4,0(a3)
30000040:	00078613          	mv	a2,a5
30000044:	00178793          	addi	a5,a5,1
30000048:	0ff77713          	zext.b	a4,a4
3000004c:	00e60023          	sb	a4,0(a2)
30000050:	00168693          	addi	a3,a3,1
30000054:	feb794e3          	bne	a5,a1,3000003c <fsbl_load+0x2c>
30000058:	406787b3          	sub	a5,a5,t1
3000005c:	00f50533          	add	a0,a0,a5
30000060:	70000097          	auipc	ra,0x70000
30000064:	fa0080e7          	jalr	-96(ra) # a0000000 <ssbl_load>

Disassembly of section .text.ssbl:

a0000000 <ssbl_load>:
a0000000:	ff410113          	addi	sp,sp,-12
a0000004:	00112423          	sw	ra,8(sp)
a0000008:	00000797          	auipc	a5,0x0
a000000c:	05c78793          	addi	a5,a5,92 # a0000064 <_essbl_load>
a0000010:	00000617          	auipc	a2,0x0
a0000014:	1f460613          	addi	a2,a2,500 # a0000204 <f>
a0000018:	02c7f063          	bgeu	a5,a2,a0000038 <ssbl_load+0x38>
a000001c:	00054703          	lbu	a4,0(a0)
a0000020:	00078693          	mv	a3,a5
a0000024:	00178793          	addi	a5,a5,1
a0000028:	0ff77713          	zext.b	a4,a4
a000002c:	00e68023          	sb	a4,0(a3)
a0000030:	00150513          	addi	a0,a0,1
a0000034:	fec794e3          	bne	a5,a2,a000001c <ssbl_load+0x1c>
a0000038:	00000697          	auipc	a3,0x0
a000003c:	20868693          	addi	a3,a3,520 # a0000240 <_bss_end>
a0000040:	00000797          	auipc	a5,0x0
a0000044:	1c478793          	addi	a5,a5,452 # a0000204 <f>
a0000048:	40f68733          	sub	a4,a3,a5
a000004c:	00f68a63          	beq	a3,a5,a0000060 <ssbl_load+0x60>
a0000050:	00e78733          	add	a4,a5,a4
a0000054:	00078023          	sb	zero,0(a5)
a0000058:	00178793          	addi	a5,a5,1
a000005c:	fef71ce3          	bne	a4,a5,a0000054 <ssbl_load+0x54>
a0000060:	0d0000ef          	jal	ra,a0000130 <_trm_init>

Disassembly of section .text:

a0000064 <check>:
a0000064:	00050463          	beqz	a0,a000006c <check+0x8>
a0000068:	00008067          	ret
a000006c:	ff410113          	addi	sp,sp,-12
a0000070:	00100513          	li	a0,1
a0000074:	00112423          	sw	ra,8(sp)
a0000078:	0b0000ef          	jal	ra,a0000128 <halt>

a000007c <main>:
a000007c:	fec10113          	addi	sp,sp,-20
a0000080:	00000797          	auipc	a5,0x0
a0000084:	18478793          	addi	a5,a5,388 # a0000204 <f>
a0000088:	00112823          	sw	ra,16(sp)
a000008c:	00812623          	sw	s0,12(sp)
a0000090:	00912423          	sw	s1,8(sp)
a0000094:	00f12223          	sw	a5,4(sp)
a0000098:	00012023          	sw	zero,0(sp)
a000009c:	00100513          	li	a0,1
a00000a0:	00012703          	lw	a4,0(sp)
a00000a4:	00000697          	auipc	a3,0x0
a00000a8:	12c68693          	addi	a3,a3,300 # a00001d0 <ans>
a00000ac:	00271793          	slli	a5,a4,0x2
a00000b0:	00f687b3          	add	a5,a3,a5
a00000b4:	0007a783          	lw	a5,0(a5)
a00000b8:	00170413          	addi	s0,a4,1
a00000bc:	00412703          	lw	a4,4(sp)
a00000c0:	00812023          	sw	s0,0(sp)
a00000c4:	00a72023          	sw	a0,0(a4)
a00000c8:	40a78533          	sub	a0,a5,a0
a00000cc:	00153513          	seqz	a0,a0
a00000d0:	f95ff0ef          	jal	ra,a0000064 <check>
a00000d4:	00d00793          	li	a5,13
a00000d8:	02f40c63          	beq	s0,a5,a0000110 <main+0x94>
a00000dc:	00012483          	lw	s1,0(sp)
a00000e0:	00100793          	li	a5,1
a00000e4:	00100513          	li	a0,1
a00000e8:	00f48c63          	beq	s1,a5,a0000100 <main+0x84>
a00000ec:	00100413          	li	s0,1
a00000f0:	00048593          	mv	a1,s1
a00000f4:	fff48493          	addi	s1,s1,-1
a00000f8:	074000ef          	jal	ra,a000016c <__mulsi3>
a00000fc:	fe849ae3          	bne	s1,s0,a00000f0 <main+0x74>
a0000100:	00412783          	lw	a5,4(sp)
a0000104:	00478793          	addi	a5,a5,4
a0000108:	00f12223          	sw	a5,4(sp)
a000010c:	f95ff06f          	j	a00000a0 <main+0x24>
a0000110:	01012083          	lw	ra,16(sp)
a0000114:	00c12403          	lw	s0,12(sp)
a0000118:	00812483          	lw	s1,8(sp)
a000011c:	00000513          	li	a0,0
a0000120:	01410113          	addi	sp,sp,20
a0000124:	00008067          	ret

a0000128 <halt>:
a0000128:	00100073          	ebreak
a000012c:	0000006f          	j	a000012c <halt+0x4>

a0000130 <_trm_init>:
a0000130:	ff410113          	addi	sp,sp,-12
a0000134:	00112423          	sw	ra,8(sp)
a0000138:	100007b7          	lui	a5,0x10000
a000013c:	f8000713          	li	a4,-128
a0000140:	00e781a3          	sb	a4,3(a5) # 10000003 <_stack_pointer+0xffe503>
a0000144:	00100713          	li	a4,1
a0000148:	00e78023          	sb	a4,0(a5)
a000014c:	000780a3          	sb	zero,1(a5)
a0000150:	00300713          	li	a4,3
a0000154:	00e781a3          	sb	a4,3(a5)
a0000158:	00000517          	auipc	a0,0x0
a000015c:	03850513          	addi	a0,a0,56 # a0000190 <_etext>
a0000160:	f1dff0ef          	jal	ra,a000007c <main>
a0000164:	00100073          	ebreak
a0000168:	0000006f          	j	a0000168 <_trm_init+0x38>

a000016c <__mulsi3>:
a000016c:	00050613          	mv	a2,a0
a0000170:	00000513          	li	a0,0
a0000174:	0015f693          	andi	a3,a1,1
a0000178:	00068463          	beqz	a3,a0000180 <__mulsi3+0x14>
a000017c:	00c50533          	add	a0,a0,a2
a0000180:	0015d593          	srli	a1,a1,0x1
a0000184:	00161613          	slli	a2,a2,0x1
a0000188:	fe0596e3          	bnez	a1,a0000174 <__mulsi3+0x8>
a000018c:	00008067          	ret
