
/home/meowth/ysyx/ysyx-workbench/am-kernels/tests/cpu-tests/build/hello-str-riscv32e-ysyx-soc.elf:     file format elf32-littleriscv


Disassembly of section .text.fsbl:

30000000 <_start>:
30000000:	00000413          	li	s0,0
30000004:	df002117          	auipc	sp,0xdf002
30000008:	afc10113          	addi	sp,sp,-1284 # f001b00 <_stack_pointer>
3000000c:	004000ef          	jal	ra,30000010 <fsbl_load>

30000010 <fsbl_load>:
30000010:	ff410113          	addi	sp,sp,-12
30000014:	00112423          	sw	ra,8(sp)
30000018:	70000317          	auipc	t1,0x70000
3000001c:	fe830313          	addi	t1,t1,-24 # a0000000 <ssbl_load>
30000020:	70000597          	auipc	a1,0x70000
30000024:	04458593          	addi	a1,a1,68 # a0000064 <check>
30000028:	00000517          	auipc	a0,0x0
3000002c:	04050513          	addi	a0,a0,64 # 30000068 <_efsbl_load>
30000030:	02b37863          	bgeu	t1,a1,30000060 <fsbl_load+0x50>
30000034:	00030793          	mv	a5,t1
30000038:	00050693          	mv	a3,a0
3000003c:	0006c703          	lbu	a4,0(a3)
30000040:	00078613          	mv	a2,a5
30000044:	00178793          	addi	a5,a5,1
30000048:	0ff77713          	zext.b	a4,a4
3000004c:	00e60023          	sb	a4,0(a2)
30000050:	00168693          	addi	a3,a3,1
30000054:	feb794e3          	bne	a5,a1,3000003c <fsbl_load+0x2c>
30000058:	406787b3          	sub	a5,a5,t1
3000005c:	00f50533          	add	a0,a0,a5
30000060:	70000097          	auipc	ra,0x70000
30000064:	fa0080e7          	jalr	-96(ra) # a0000000 <ssbl_load>

Disassembly of section .text.ssbl:

a0000000 <ssbl_load>:
a0000000:	ff410113          	addi	sp,sp,-12
a0000004:	00112423          	sw	ra,8(sp)
a0000008:	00000797          	auipc	a5,0x0
a000000c:	05c78793          	addi	a5,a5,92 # a0000064 <_essbl_load>
a0000010:	00001617          	auipc	a2,0x1
a0000014:	ef060613          	addi	a2,a2,-272 # a0000f00 <buf>
a0000018:	02c7f063          	bgeu	a5,a2,a0000038 <ssbl_load+0x38>
a000001c:	00054703          	lbu	a4,0(a0)
a0000020:	00078693          	mv	a3,a5
a0000024:	00178793          	addi	a5,a5,1
a0000028:	0ff77713          	zext.b	a4,a4
a000002c:	00e68023          	sb	a4,0(a3)
a0000030:	00150513          	addi	a0,a0,1
a0000034:	fec794e3          	bne	a5,a2,a000001c <ssbl_load+0x1c>
a0000038:	00001697          	auipc	a3,0x1
a000003c:	f4c68693          	addi	a3,a3,-180 # a0000f84 <_bss_end>
a0000040:	00001797          	auipc	a5,0x1
a0000044:	ec078793          	addi	a5,a5,-320 # a0000f00 <buf>
a0000048:	40f68733          	sub	a4,a3,a5
a000004c:	00f68a63          	beq	a3,a5,a0000060 <ssbl_load+0x60>
a0000050:	00e78733          	add	a4,a5,a4
a0000054:	00078023          	sb	zero,0(a5)
a0000058:	00178793          	addi	a5,a5,1
a000005c:	fef71ce3          	bne	a4,a5,a0000054 <ssbl_load+0x54>
a0000060:	094000ef          	jal	ra,a00000f4 <_trm_init>

Disassembly of section .text:

a0000064 <check>:
a0000064:	00050463          	beqz	a0,a000006c <check+0x8>
a0000068:	00008067          	ret
a000006c:	ff410113          	addi	sp,sp,-12
a0000070:	00100513          	li	a0,1
a0000074:	00112423          	sw	ra,8(sp)
a0000078:	074000ef          	jal	ra,a00000ec <halt>

a000007c <main>:
a000007c:	ff410113          	addi	sp,sp,-12
a0000080:	00812223          	sw	s0,4(sp)
a0000084:	00001417          	auipc	s0,0x1
a0000088:	e7c40413          	addi	s0,s0,-388 # a0000f00 <buf>
a000008c:	00001617          	auipc	a2,0x1
a0000090:	d7460613          	addi	a2,a2,-652 # a0000e00 <_etext>
a0000094:	00001597          	auipc	a1,0x1
a0000098:	d7c58593          	addi	a1,a1,-644 # a0000e10 <_etext+0x10>
a000009c:	00040513          	mv	a0,s0
a00000a0:	00112423          	sw	ra,8(sp)
a00000a4:	5f0000ef          	jal	ra,a0000694 <sprintf>
a00000a8:	00001597          	auipc	a1,0x1
a00000ac:	d5858593          	addi	a1,a1,-680 # a0000e00 <_etext>
a00000b0:	00040513          	mv	a0,s0
a00000b4:	07c000ef          	jal	ra,a0000130 <strcmp>
a00000b8:	00153513          	seqz	a0,a0
a00000bc:	fa9ff0ef          	jal	ra,a0000064 <check>
a00000c0:	00812083          	lw	ra,8(sp)
a00000c4:	00412403          	lw	s0,4(sp)
a00000c8:	00000513          	li	a0,0
a00000cc:	00c10113          	addi	sp,sp,12
a00000d0:	00008067          	ret

a00000d4 <putch>:
a00000d4:	10000737          	lui	a4,0x10000
a00000d8:	00574783          	lbu	a5,5(a4) # 10000005 <_stack_pointer+0xffe505>
a00000dc:	0207f793          	andi	a5,a5,32
a00000e0:	fe078ce3          	beqz	a5,a00000d8 <putch+0x4>
a00000e4:	00a70023          	sb	a0,0(a4)
a00000e8:	00008067          	ret

a00000ec <halt>:
a00000ec:	00100073          	ebreak
a00000f0:	0000006f          	j	a00000f0 <halt+0x4>

a00000f4 <_trm_init>:
a00000f4:	ff410113          	addi	sp,sp,-12
a00000f8:	00112423          	sw	ra,8(sp)
a00000fc:	100007b7          	lui	a5,0x10000
a0000100:	f8000713          	li	a4,-128
a0000104:	00e781a3          	sb	a4,3(a5) # 10000003 <_stack_pointer+0xffe503>
a0000108:	00100713          	li	a4,1
a000010c:	00e78023          	sb	a4,0(a5)
a0000110:	000780a3          	sb	zero,1(a5)
a0000114:	00300713          	li	a4,3
a0000118:	00e781a3          	sb	a4,3(a5)
a000011c:	00001517          	auipc	a0,0x1
a0000120:	cf850513          	addi	a0,a0,-776 # a0000e14 <mainargs>
a0000124:	f59ff0ef          	jal	ra,a000007c <main>
a0000128:	00100073          	ebreak
a000012c:	0000006f          	j	a000012c <_trm_init+0x38>

a0000130 <strcmp>:
a0000130:	00054703          	lbu	a4,0(a0)
a0000134:	0005c783          	lbu	a5,0(a1)
a0000138:	00150513          	addi	a0,a0,1
a000013c:	00071863          	bnez	a4,a000014c <strcmp+0x1c>
a0000140:	00f037b3          	snez	a5,a5
a0000144:	40f00533          	neg	a0,a5
a0000148:	00008067          	ret
a000014c:	00158593          	addi	a1,a1,1
a0000150:	fef700e3          	beq	a4,a5,a0000130 <strcmp>
a0000154:	00f76663          	bltu	a4,a5,a0000160 <strcmp+0x30>
a0000158:	00100513          	li	a0,1
a000015c:	00008067          	ret
a0000160:	fff00513          	li	a0,-1
a0000164:	00008067          	ret

a0000168 <sputch>:
a0000168:	00001717          	auipc	a4,0x1
a000016c:	e1870713          	addi	a4,a4,-488 # a0000f80 <__out>
a0000170:	00072783          	lw	a5,0(a4)
a0000174:	00178693          	addi	a3,a5,1
a0000178:	00d72023          	sw	a3,0(a4)
a000017c:	00a78023          	sb	a0,0(a5)
a0000180:	00008067          	ret

a0000184 <printf>:
a0000184:	fdc10113          	addi	sp,sp,-36
a0000188:	01010313          	addi	t1,sp,16
a000018c:	00b12823          	sw	a1,16(sp)
a0000190:	00c12a23          	sw	a2,20(sp)
a0000194:	00050593          	mv	a1,a0
a0000198:	00030613          	mv	a2,t1
a000019c:	00000517          	auipc	a0,0x0
a00001a0:	f3850513          	addi	a0,a0,-200 # a00000d4 <putch>
a00001a4:	00112623          	sw	ra,12(sp)
a00001a8:	00d12c23          	sw	a3,24(sp)
a00001ac:	00e12e23          	sw	a4,28(sp)
a00001b0:	02f12023          	sw	a5,32(sp)
a00001b4:	00612023          	sw	t1,0(sp)
a00001b8:	010000ef          	jal	ra,a00001c8 <vprintf>
a00001bc:	00c12083          	lw	ra,12(sp)
a00001c0:	02410113          	addi	sp,sp,36
a00001c4:	00008067          	ret

a00001c8 <vprintf>:
a00001c8:	f9410113          	addi	sp,sp,-108
a00001cc:	06112423          	sw	ra,104(sp)
a00001d0:	06812223          	sw	s0,100(sp)
a00001d4:	06912023          	sw	s1,96(sp)
a00001d8:	0005c783          	lbu	a5,0(a1)
a00001dc:	00a12023          	sw	a0,0(sp)
a00001e0:	00c12a23          	sw	a2,20(sp)
a00001e4:	46078863          	beqz	a5,a0000654 <vprintf+0x48c>
a00001e8:	00058413          	mv	s0,a1
a00001ec:	00012423          	sw	zero,8(sp)
a00001f0:	00012623          	sw	zero,12(sp)
a00001f4:	00000713          	li	a4,0
a00001f8:	00078513          	mv	a0,a5
a00001fc:	0340006f          	j	a0000230 <vprintf+0x68>
a0000200:	00e12223          	sw	a4,4(sp)
a0000204:	1e071a63          	bnez	a4,a00003f8 <vprintf+0x230>
a0000208:	00012783          	lw	a5,0(sp)
a000020c:	00040493          	mv	s1,s0
a0000210:	000780e7          	jalr	a5
a0000214:	00812783          	lw	a5,8(sp)
a0000218:	00412703          	lw	a4,4(sp)
a000021c:	00178793          	addi	a5,a5,1
a0000220:	00f12423          	sw	a5,8(sp)
a0000224:	0014c503          	lbu	a0,1(s1)
a0000228:	00148413          	addi	s0,s1,1
a000022c:	04050e63          	beqz	a0,a0000288 <vprintf+0xc0>
a0000230:	02500793          	li	a5,37
a0000234:	fcf516e3          	bne	a0,a5,a0000200 <vprintf+0x38>
a0000238:	00173713          	seqz	a4,a4
a000023c:	00e404b3          	add	s1,s0,a4
a0000240:	0004c783          	lbu	a5,0(s1)
a0000244:	02500713          	li	a4,37
a0000248:	1ce78063          	beq	a5,a4,a0000408 <vprintf+0x240>
a000024c:	f9d78793          	addi	a5,a5,-99
a0000250:	0ff7f793          	zext.b	a5,a5
a0000254:	01200713          	li	a4,18
a0000258:	02f76063          	bltu	a4,a5,a0000278 <vprintf+0xb0>
a000025c:	00001717          	auipc	a4,0x1
a0000260:	c5870713          	addi	a4,a4,-936 # a0000eb4 <mainargs+0xa0>
a0000264:	00279793          	slli	a5,a5,0x2
a0000268:	00e787b3          	add	a5,a5,a4
a000026c:	0007a783          	lw	a5,0(a5)
a0000270:	00e787b3          	add	a5,a5,a4
a0000274:	00078067          	jr	a5
a0000278:	0014c503          	lbu	a0,1(s1)
a000027c:	00100713          	li	a4,1
a0000280:	00148413          	addi	s0,s1,1
a0000284:	fa0516e3          	bnez	a0,a0000230 <vprintf+0x68>
a0000288:	06812083          	lw	ra,104(sp)
a000028c:	06412403          	lw	s0,100(sp)
a0000290:	00812503          	lw	a0,8(sp)
a0000294:	06012483          	lw	s1,96(sp)
a0000298:	06c10113          	addi	sp,sp,108
a000029c:	00008067          	ret
a00002a0:	00c12703          	lw	a4,12(sp)
a00002a4:	00200793          	li	a5,2
a00002a8:	3ee7c263          	blt	a5,a4,a000068c <vprintf+0x4c4>
a00002ac:	00c12703          	lw	a4,12(sp)
a00002b0:	36f70863          	beq	a4,a5,a0000620 <vprintf+0x458>
a00002b4:	01412703          	lw	a4,20(sp)
a00002b8:	00000793          	li	a5,0
a00002bc:	00072403          	lw	s0,0(a4)
a00002c0:	00470713          	addi	a4,a4,4
a00002c4:	00e12a23          	sw	a4,20(sp)
a00002c8:	00f46733          	or	a4,s0,a5
a00002cc:	14071863          	bnez	a4,a000041c <vprintf+0x254>
a00002d0:	00812783          	lw	a5,8(sp)
a00002d4:	03000513          	li	a0,48
a00002d8:	00178793          	addi	a5,a5,1
a00002dc:	00f12423          	sw	a5,8(sp)
a00002e0:	00012783          	lw	a5,0(sp)
a00002e4:	000780e7          	jalr	a5
a00002e8:	00012623          	sw	zero,12(sp)
a00002ec:	00000713          	li	a4,0
a00002f0:	f35ff06f          	j	a0000224 <vprintf+0x5c>
a00002f4:	00c12783          	lw	a5,12(sp)
a00002f8:	38079663          	bnez	a5,a0000684 <vprintf+0x4bc>
a00002fc:	01412783          	lw	a5,20(sp)
a0000300:	0007a703          	lw	a4,0(a5)
a0000304:	00478793          	addi	a5,a5,4
a0000308:	00f12223          	sw	a5,4(sp)
a000030c:	00074503          	lbu	a0,0(a4)
a0000310:	32050463          	beqz	a0,a0000638 <vprintf+0x470>
a0000314:	00812403          	lw	s0,8(sp)
a0000318:	00912823          	sw	s1,16(sp)
a000031c:	00070493          	mv	s1,a4
a0000320:	00012783          	lw	a5,0(sp)
a0000324:	00140413          	addi	s0,s0,1
a0000328:	000780e7          	jalr	a5
a000032c:	00812783          	lw	a5,8(sp)
a0000330:	40f407b3          	sub	a5,s0,a5
a0000334:	00f487b3          	add	a5,s1,a5
a0000338:	0007c503          	lbu	a0,0(a5)
a000033c:	fe0512e3          	bnez	a0,a0000320 <vprintf+0x158>
a0000340:	00412783          	lw	a5,4(sp)
a0000344:	01012483          	lw	s1,16(sp)
a0000348:	00812423          	sw	s0,8(sp)
a000034c:	00f12a23          	sw	a5,20(sp)
a0000350:	00000713          	li	a4,0
a0000354:	ed1ff06f          	j	a0000224 <vprintf+0x5c>
a0000358:	00c12783          	lw	a5,12(sp)
a000035c:	00100713          	li	a4,1
a0000360:	00178793          	addi	a5,a5,1
a0000364:	00f12623          	sw	a5,12(sp)
a0000368:	ebdff06f          	j	a0000224 <vprintf+0x5c>
a000036c:	00c12703          	lw	a4,12(sp)
a0000370:	00200793          	li	a5,2
a0000374:	2ee7c463          	blt	a5,a4,a000065c <vprintf+0x494>
a0000378:	00c12703          	lw	a4,12(sp)
a000037c:	28f70663          	beq	a4,a5,a0000608 <vprintf+0x440>
a0000380:	01412783          	lw	a5,20(sp)
a0000384:	0007a283          	lw	t0,0(a5)
a0000388:	00478793          	addi	a5,a5,4
a000038c:	00f12a23          	sw	a5,20(sp)
a0000390:	41f2d793          	srai	a5,t0,0x1f
a0000394:	00812703          	lw	a4,8(sp)
a0000398:	00170713          	addi	a4,a4,1
a000039c:	00e12623          	sw	a4,12(sp)
a00003a0:	1607c463          	bltz	a5,a0000508 <vprintf+0x340>
a00003a4:	00f2e733          	or	a4,t0,a5
a00003a8:	2a071063          	bnez	a4,a0000648 <vprintf+0x480>
a00003ac:	00012783          	lw	a5,0(sp)
a00003b0:	03000513          	li	a0,48
a00003b4:	000780e7          	jalr	a5
a00003b8:	00c12783          	lw	a5,12(sp)
a00003bc:	00f12423          	sw	a5,8(sp)
a00003c0:	f29ff06f          	j	a00002e8 <vprintf+0x120>
a00003c4:	00c12783          	lw	a5,12(sp)
a00003c8:	2a079a63          	bnez	a5,a000067c <vprintf+0x4b4>
a00003cc:	01412783          	lw	a5,20(sp)
a00003d0:	0007c503          	lbu	a0,0(a5)
a00003d4:	00478413          	addi	s0,a5,4
a00003d8:	00812783          	lw	a5,8(sp)
a00003dc:	00178793          	addi	a5,a5,1
a00003e0:	00f12423          	sw	a5,8(sp)
a00003e4:	00012783          	lw	a5,0(sp)
a00003e8:	000780e7          	jalr	a5
a00003ec:	00000713          	li	a4,0
a00003f0:	00812a23          	sw	s0,20(sp)
a00003f4:	e31ff06f          	j	a0000224 <vprintf+0x5c>
a00003f8:	00040493          	mv	s1,s0
a00003fc:	0004c783          	lbu	a5,0(s1)
a0000400:	02500713          	li	a4,37
a0000404:	e4e794e3          	bne	a5,a4,a000024c <vprintf+0x84>
a0000408:	00012783          	lw	a5,0(sp)
a000040c:	02500513          	li	a0,37
a0000410:	000780e7          	jalr	a5
a0000414:	00000713          	li	a4,0
a0000418:	e0dff06f          	j	a0000224 <vprintf+0x5c>
a000041c:	02010713          	addi	a4,sp,32
a0000420:	00000293          	li	t0,0
a0000424:	00912e23          	sw	s1,28(sp)
a0000428:	00e12c23          	sw	a4,24(sp)
a000042c:	00078493          	mv	s1,a5
a0000430:	00e12223          	sw	a4,4(sp)
a0000434:	00028793          	mv	a5,t0
a0000438:	00a00613          	li	a2,10
a000043c:	00000693          	li	a3,0
a0000440:	00040513          	mv	a0,s0
a0000444:	00048593          	mv	a1,s1
a0000448:	00f12823          	sw	a5,16(sp)
a000044c:	7c0000ef          	jal	ra,a0000c0c <__umoddi3>
a0000450:	00412783          	lw	a5,4(sp)
a0000454:	03050713          	addi	a4,a0,48
a0000458:	0ff77713          	zext.b	a4,a4
a000045c:	00e78023          	sb	a4,0(a5)
a0000460:	00040513          	mv	a0,s0
a0000464:	00048593          	mv	a1,s1
a0000468:	00a00613          	li	a2,10
a000046c:	00000693          	li	a3,0
a0000470:	00e12623          	sw	a4,12(sp)
a0000474:	790000ef          	jal	ra,a0000c04 <__udivdi3>
a0000478:	00412703          	lw	a4,4(sp)
a000047c:	01012783          	lw	a5,16(sp)
a0000480:	00048613          	mv	a2,s1
a0000484:	00170713          	addi	a4,a4,1
a0000488:	00e12223          	sw	a4,4(sp)
a000048c:	00078693          	mv	a3,a5
a0000490:	00040393          	mv	t2,s0
a0000494:	00c12703          	lw	a4,12(sp)
a0000498:	00178793          	addi	a5,a5,1
a000049c:	00050413          	mv	s0,a0
a00004a0:	00058493          	mv	s1,a1
a00004a4:	f8061ae3          	bnez	a2,a0000438 <vprintf+0x270>
a00004a8:	00900613          	li	a2,9
a00004ac:	f87666e3          	bltu	a2,t2,a0000438 <vprintf+0x270>
a00004b0:	01812783          	lw	a5,24(sp)
a00004b4:	01c12483          	lw	s1,28(sp)
a00004b8:	00d12623          	sw	a3,12(sp)
a00004bc:	00d78433          	add	s0,a5,a3
a00004c0:	00912223          	sw	s1,4(sp)
a00004c4:	00070513          	mv	a0,a4
a00004c8:	00040493          	mv	s1,s0
a00004cc:	00078413          	mv	s0,a5
a00004d0:	00c0006f          	j	a00004dc <vprintf+0x314>
a00004d4:	fff4c503          	lbu	a0,-1(s1)
a00004d8:	00070493          	mv	s1,a4
a00004dc:	00012783          	lw	a5,0(sp)
a00004e0:	000780e7          	jalr	a5
a00004e4:	fff48713          	addi	a4,s1,-1
a00004e8:	fe9416e3          	bne	s0,s1,a00004d4 <vprintf+0x30c>
a00004ec:	00812783          	lw	a5,8(sp)
a00004f0:	00c12683          	lw	a3,12(sp)
a00004f4:	00412483          	lw	s1,4(sp)
a00004f8:	00178793          	addi	a5,a5,1
a00004fc:	00d787b3          	add	a5,a5,a3
a0000500:	00f12423          	sw	a5,8(sp)
a0000504:	de5ff06f          	j	a00002e8 <vprintf+0x120>
a0000508:	00503733          	snez	a4,t0
a000050c:	40f007b3          	neg	a5,a5
a0000510:	40e787b3          	sub	a5,a5,a4
a0000514:	00f12423          	sw	a5,8(sp)
a0000518:	00012783          	lw	a5,0(sp)
a000051c:	405002b3          	neg	t0,t0
a0000520:	02d00513          	li	a0,45
a0000524:	00512223          	sw	t0,4(sp)
a0000528:	000780e7          	jalr	a5
a000052c:	00412283          	lw	t0,4(sp)
a0000530:	00812783          	lw	a5,8(sp)
a0000534:	02010413          	addi	s0,sp,32
a0000538:	00000313          	li	t1,0
a000053c:	00912823          	sw	s1,16(sp)
a0000540:	00812c23          	sw	s0,24(sp)
a0000544:	00030493          	mv	s1,t1
a0000548:	00a00613          	li	a2,10
a000054c:	00000693          	li	a3,0
a0000550:	00028513          	mv	a0,t0
a0000554:	00078593          	mv	a1,a5
a0000558:	00512423          	sw	t0,8(sp)
a000055c:	00f12223          	sw	a5,4(sp)
a0000560:	618000ef          	jal	ra,a0000b78 <__moddi3>
a0000564:	00412783          	lw	a5,4(sp)
a0000568:	00812283          	lw	t0,8(sp)
a000056c:	03050713          	addi	a4,a0,48
a0000570:	0ff77713          	zext.b	a4,a4
a0000574:	00e40023          	sb	a4,0(s0)
a0000578:	00028513          	mv	a0,t0
a000057c:	00078593          	mv	a1,a5
a0000580:	00a00613          	li	a2,10
a0000584:	00000693          	li	a3,0
a0000588:	00e12223          	sw	a4,4(sp)
a000058c:	574000ef          	jal	ra,a0000b00 <__divdi3>
a0000590:	00a5e633          	or	a2,a1,a0
a0000594:	00048693          	mv	a3,s1
a0000598:	00412703          	lw	a4,4(sp)
a000059c:	00050293          	mv	t0,a0
a00005a0:	00058793          	mv	a5,a1
a00005a4:	00148493          	addi	s1,s1,1
a00005a8:	00140413          	addi	s0,s0,1
a00005ac:	f8061ee3          	bnez	a2,a0000548 <vprintf+0x380>
a00005b0:	01812783          	lw	a5,24(sp)
a00005b4:	01012483          	lw	s1,16(sp)
a00005b8:	00d12423          	sw	a3,8(sp)
a00005bc:	00d78433          	add	s0,a5,a3
a00005c0:	00912223          	sw	s1,4(sp)
a00005c4:	00070513          	mv	a0,a4
a00005c8:	00040493          	mv	s1,s0
a00005cc:	00078413          	mv	s0,a5
a00005d0:	00c0006f          	j	a00005dc <vprintf+0x414>
a00005d4:	fff4c503          	lbu	a0,-1(s1)
a00005d8:	00070493          	mv	s1,a4
a00005dc:	00012783          	lw	a5,0(sp)
a00005e0:	000780e7          	jalr	a5
a00005e4:	fff48713          	addi	a4,s1,-1
a00005e8:	fe9416e3          	bne	s0,s1,a00005d4 <vprintf+0x40c>
a00005ec:	00c12783          	lw	a5,12(sp)
a00005f0:	00812683          	lw	a3,8(sp)
a00005f4:	00412483          	lw	s1,4(sp)
a00005f8:	00178793          	addi	a5,a5,1
a00005fc:	00d787b3          	add	a5,a5,a3
a0000600:	00f12423          	sw	a5,8(sp)
a0000604:	ce5ff06f          	j	a00002e8 <vprintf+0x120>
a0000608:	01412703          	lw	a4,20(sp)
a000060c:	00072283          	lw	t0,0(a4)
a0000610:	00472783          	lw	a5,4(a4)
a0000614:	00870713          	addi	a4,a4,8
a0000618:	00e12a23          	sw	a4,20(sp)
a000061c:	d79ff06f          	j	a0000394 <vprintf+0x1cc>
a0000620:	01412703          	lw	a4,20(sp)
a0000624:	00072403          	lw	s0,0(a4)
a0000628:	00472783          	lw	a5,4(a4)
a000062c:	00870713          	addi	a4,a4,8
a0000630:	00e12a23          	sw	a4,20(sp)
a0000634:	c95ff06f          	j	a00002c8 <vprintf+0x100>
a0000638:	00412783          	lw	a5,4(sp)
a000063c:	00000713          	li	a4,0
a0000640:	00f12a23          	sw	a5,20(sp)
a0000644:	be1ff06f          	j	a0000224 <vprintf+0x5c>
a0000648:	00812703          	lw	a4,8(sp)
a000064c:	00e12623          	sw	a4,12(sp)
a0000650:	ee5ff06f          	j	a0000534 <vprintf+0x36c>
a0000654:	00012423          	sw	zero,8(sp)
a0000658:	c31ff06f          	j	a0000288 <vprintf+0xc0>
a000065c:	03000613          	li	a2,48
a0000660:	00000597          	auipc	a1,0x0
a0000664:	7f458593          	addi	a1,a1,2036 # a0000e54 <mainargs+0x40>
a0000668:	00001517          	auipc	a0,0x1
a000066c:	83050513          	addi	a0,a0,-2000 # a0000e98 <mainargs+0x84>
a0000670:	b15ff0ef          	jal	ra,a0000184 <printf>
a0000674:	00100513          	li	a0,1
a0000678:	a75ff0ef          	jal	ra,a00000ec <halt>
a000067c:	02a00613          	li	a2,42
a0000680:	fe1ff06f          	j	a0000660 <vprintf+0x498>
a0000684:	02100613          	li	a2,33
a0000688:	fd9ff06f          	j	a0000660 <vprintf+0x498>
a000068c:	04c00613          	li	a2,76
a0000690:	fd1ff06f          	j	a0000660 <vprintf+0x498>

a0000694 <sprintf>:
a0000694:	fe010113          	addi	sp,sp,-32
a0000698:	01010313          	addi	t1,sp,16
a000069c:	00812423          	sw	s0,8(sp)
a00006a0:	00050293          	mv	t0,a0
a00006a4:	00001417          	auipc	s0,0x1
a00006a8:	8dc40413          	addi	s0,s0,-1828 # a0000f80 <__out>
a00006ac:	00c12823          	sw	a2,16(sp)
a00006b0:	00000517          	auipc	a0,0x0
a00006b4:	ab850513          	addi	a0,a0,-1352 # a0000168 <sputch>
a00006b8:	00030613          	mv	a2,t1
a00006bc:	00112623          	sw	ra,12(sp)
a00006c0:	00e12c23          	sw	a4,24(sp)
a00006c4:	00f12e23          	sw	a5,28(sp)
a00006c8:	00d12a23          	sw	a3,20(sp)
a00006cc:	00612023          	sw	t1,0(sp)
a00006d0:	00542023          	sw	t0,0(s0)
a00006d4:	af5ff0ef          	jal	ra,a00001c8 <vprintf>
a00006d8:	00042783          	lw	a5,0(s0)
a00006dc:	00078023          	sb	zero,0(a5)
a00006e0:	00178713          	addi	a4,a5,1
a00006e4:	00c12083          	lw	ra,12(sp)
a00006e8:	00e42023          	sw	a4,0(s0)
a00006ec:	00812403          	lw	s0,8(sp)
a00006f0:	02010113          	addi	sp,sp,32
a00006f4:	00008067          	ret

a00006f8 <__udivmoddi4>:
a00006f8:	fe010113          	addi	sp,sp,-32
a00006fc:	00912a23          	sw	s1,20(sp)
a0000700:	00112e23          	sw	ra,28(sp)
a0000704:	00812c23          	sw	s0,24(sp)
a0000708:	00e12223          	sw	a4,4(sp)
a000070c:	00050313          	mv	t1,a0
a0000710:	00060493          	mv	s1,a2
a0000714:	04059663          	bnez	a1,a0000760 <__udivmoddi4+0x68>
a0000718:	20069463          	bnez	a3,a0000920 <__udivmoddi4+0x228>
a000071c:	00070413          	mv	s0,a4
a0000720:	00070e63          	beqz	a4,a000073c <__udivmoddi4+0x44>
a0000724:	00048593          	mv	a1,s1
a0000728:	00a12023          	sw	a0,0(sp)
a000072c:	670000ef          	jal	ra,a0000d9c <__umodsi3>
a0000730:	00012303          	lw	t1,0(sp)
a0000734:	00a42023          	sw	a0,0(s0)
a0000738:	00042223          	sw	zero,4(s0)
a000073c:	00048593          	mv	a1,s1
a0000740:	00030513          	mv	a0,t1
a0000744:	610000ef          	jal	ra,a0000d54 <__hidden___udivsi3>
a0000748:	00000593          	li	a1,0
a000074c:	01c12083          	lw	ra,28(sp)
a0000750:	01812403          	lw	s0,24(sp)
a0000754:	01412483          	lw	s1,20(sp)
a0000758:	02010113          	addi	sp,sp,32
a000075c:	00008067          	ret
a0000760:	00058793          	mv	a5,a1
a0000764:	08061263          	bnez	a2,a00007e8 <__udivmoddi4+0xf0>
a0000768:	24068263          	beqz	a3,a00009ac <__udivmoddi4+0x2b4>
a000076c:	2c050a63          	beqz	a0,a0000a40 <__udivmoddi4+0x348>
a0000770:	fff68613          	addi	a2,a3,-1
a0000774:	00d675b3          	and	a1,a2,a3
a0000778:	32058463          	beqz	a1,a0000aa0 <__udivmoddi4+0x3a8>
a000077c:	00a12623          	sw	a0,12(sp)
a0000780:	00068513          	mv	a0,a3
a0000784:	00f12823          	sw	a5,16(sp)
a0000788:	00f12023          	sw	a5,0(sp)
a000078c:	00d12423          	sw	a3,8(sp)
a0000790:	4b0000ef          	jal	ra,a0000c40 <__clzsi2>
a0000794:	00012703          	lw	a4,0(sp)
a0000798:	00050413          	mv	s0,a0
a000079c:	00070513          	mv	a0,a4
a00007a0:	4a0000ef          	jal	ra,a0000c40 <__clzsi2>
a00007a4:	40a40533          	sub	a0,s0,a0
a00007a8:	01e00613          	li	a2,30
a00007ac:	00012703          	lw	a4,0(sp)
a00007b0:	00812683          	lw	a3,8(sp)
a00007b4:	00c12303          	lw	t1,12(sp)
a00007b8:	01012783          	lw	a5,16(sp)
a00007bc:	1ea66a63          	bltu	a2,a0,a00009b0 <__udivmoddi4+0x2b8>
a00007c0:	00150393          	addi	t2,a0,1
a00007c4:	02000613          	li	a2,32
a00007c8:	40760633          	sub	a2,a2,t2
a00007cc:	00c712b3          	sll	t0,a4,a2
a00007d0:	007355b3          	srl	a1,t1,t2
a00007d4:	007757b3          	srl	a5,a4,t2
a00007d8:	00c31533          	sll	a0,t1,a2
a00007dc:	00b2e733          	or	a4,t0,a1
a00007e0:	00000413          	li	s0,0
a00007e4:	0780006f          	j	a000085c <__udivmoddi4+0x164>
a00007e8:	16068263          	beqz	a3,a000094c <__udivmoddi4+0x254>
a00007ec:	00a12423          	sw	a0,8(sp)
a00007f0:	00068513          	mv	a0,a3
a00007f4:	00b12623          	sw	a1,12(sp)
a00007f8:	00b12023          	sw	a1,0(sp)
a00007fc:	00d12823          	sw	a3,16(sp)
a0000800:	440000ef          	jal	ra,a0000c40 <__clzsi2>
a0000804:	00012703          	lw	a4,0(sp)
a0000808:	00050413          	mv	s0,a0
a000080c:	00070513          	mv	a0,a4
a0000810:	430000ef          	jal	ra,a0000c40 <__clzsi2>
a0000814:	40a40533          	sub	a0,s0,a0
a0000818:	01f00613          	li	a2,31
a000081c:	00812303          	lw	t1,8(sp)
a0000820:	00c12783          	lw	a5,12(sp)
a0000824:	18a66663          	bltu	a2,a0,a00009b0 <__udivmoddi4+0x2b8>
a0000828:	00150393          	addi	t2,a0,1
a000082c:	02000793          	li	a5,32
a0000830:	00012703          	lw	a4,0(sp)
a0000834:	01012683          	lw	a3,16(sp)
a0000838:	00030513          	mv	a0,t1
a000083c:	28f38a63          	beq	t2,a5,a0000ad0 <__udivmoddi4+0x3d8>
a0000840:	40778633          	sub	a2,a5,t2
a0000844:	007355b3          	srl	a1,t1,t2
a0000848:	00c71333          	sll	t1,a4,a2
a000084c:	007757b3          	srl	a5,a4,t2
a0000850:	00c51533          	sll	a0,a0,a2
a0000854:	00b36733          	or	a4,t1,a1
a0000858:	00000413          	li	s0,0
a000085c:	00068613          	mv	a2,a3
a0000860:	00012023          	sw	zero,0(sp)
a0000864:	00078693          	mv	a3,a5
a0000868:	00060793          	mv	a5,a2
a000086c:	01f55593          	srli	a1,a0,0x1f
a0000870:	00171613          	slli	a2,a4,0x1
a0000874:	00b66633          	or	a2,a2,a1
a0000878:	01f75713          	srli	a4,a4,0x1f
a000087c:	00169693          	slli	a3,a3,0x1
a0000880:	00e6e6b3          	or	a3,a3,a4
a0000884:	40c48733          	sub	a4,s1,a2
a0000888:	00e4b333          	sltu	t1,s1,a4
a000088c:	40d785b3          	sub	a1,a5,a3
a0000890:	406585b3          	sub	a1,a1,t1
a0000894:	00173713          	seqz	a4,a4
a0000898:	40e585b3          	sub	a1,a1,a4
a000089c:	41f5d313          	srai	t1,a1,0x1f
a00008a0:	00937733          	and	a4,t1,s1
a00008a4:	00f37333          	and	t1,t1,a5
a00008a8:	406686b3          	sub	a3,a3,t1
a00008ac:	00012303          	lw	t1,0(sp)
a00008b0:	40e60733          	sub	a4,a2,a4
a00008b4:	01f5d593          	srli	a1,a1,0x1f
a00008b8:	01f45293          	srli	t0,s0,0x1f
a00008bc:	00151513          	slli	a0,a0,0x1
a00008c0:	00141413          	slli	s0,s0,0x1
a00008c4:	00e63633          	sltu	a2,a2,a4
a00008c8:	fff38393          	addi	t2,t2,-1
a00008cc:	00b12023          	sw	a1,0(sp)
a00008d0:	00646433          	or	s0,s0,t1
a00008d4:	00556533          	or	a0,a0,t0
a00008d8:	40c686b3          	sub	a3,a3,a2
a00008dc:	f80398e3          	bnez	t2,a000086c <__udivmoddi4+0x174>
a00008e0:	01f45593          	srli	a1,s0,0x1f
a00008e4:	00068793          	mv	a5,a3
a00008e8:	00151693          	slli	a3,a0,0x1
a00008ec:	00012603          	lw	a2,0(sp)
a00008f0:	00d5e5b3          	or	a1,a1,a3
a00008f4:	00412683          	lw	a3,4(sp)
a00008f8:	00141413          	slli	s0,s0,0x1
a00008fc:	00c46533          	or	a0,s0,a2
a0000900:	e40686e3          	beqz	a3,a000074c <__udivmoddi4+0x54>
a0000904:	01c12083          	lw	ra,28(sp)
a0000908:	01812403          	lw	s0,24(sp)
a000090c:	00e6a023          	sw	a4,0(a3)
a0000910:	00f6a223          	sw	a5,4(a3)
a0000914:	01412483          	lw	s1,20(sp)
a0000918:	02010113          	addi	sp,sp,32
a000091c:	00008067          	ret
a0000920:	00412783          	lw	a5,4(sp)
a0000924:	08078a63          	beqz	a5,a00009b8 <__udivmoddi4+0x2c0>
a0000928:	01c12083          	lw	ra,28(sp)
a000092c:	01812403          	lw	s0,24(sp)
a0000930:	00a7a023          	sw	a0,0(a5)
a0000934:	0007a223          	sw	zero,4(a5)
a0000938:	01412483          	lw	s1,20(sp)
a000093c:	00000513          	li	a0,0
a0000940:	00000593          	li	a1,0
a0000944:	02010113          	addi	sp,sp,32
a0000948:	00008067          	ret
a000094c:	fff60613          	addi	a2,a2,-1
a0000950:	009675b3          	and	a1,a2,s1
a0000954:	06059863          	bnez	a1,a00009c4 <__udivmoddi4+0x2cc>
a0000958:	00412703          	lw	a4,4(sp)
a000095c:	00070863          	beqz	a4,a000096c <__udivmoddi4+0x274>
a0000960:	00a67633          	and	a2,a2,a0
a0000964:	00c72023          	sw	a2,0(a4)
a0000968:	00072223          	sw	zero,4(a4)
a000096c:	00100713          	li	a4,1
a0000970:	12e48263          	beq	s1,a4,a0000a94 <__udivmoddi4+0x39c>
a0000974:	00048513          	mv	a0,s1
a0000978:	00f12223          	sw	a5,4(sp)
a000097c:	00612023          	sw	t1,0(sp)
a0000980:	358000ef          	jal	ra,a0000cd8 <__ctzsi2>
a0000984:	00412783          	lw	a5,4(sp)
a0000988:	00012303          	lw	t1,0(sp)
a000098c:	02000413          	li	s0,32
a0000990:	40a40433          	sub	s0,s0,a0
a0000994:	00050713          	mv	a4,a0
a0000998:	00879433          	sll	s0,a5,s0
a000099c:	00a35533          	srl	a0,t1,a0
a00009a0:	00a46533          	or	a0,s0,a0
a00009a4:	00e7d5b3          	srl	a1,a5,a4
a00009a8:	da5ff06f          	j	a000074c <__udivmoddi4+0x54>
a00009ac:	00100073          	ebreak
a00009b0:	00412703          	lw	a4,4(sp)
a00009b4:	0c071663          	bnez	a4,a0000a80 <__udivmoddi4+0x388>
a00009b8:	00000513          	li	a0,0
a00009bc:	00000593          	li	a1,0
a00009c0:	d8dff06f          	j	a000074c <__udivmoddi4+0x54>
a00009c4:	00a12623          	sw	a0,12(sp)
a00009c8:	00048513          	mv	a0,s1
a00009cc:	00068413          	mv	s0,a3
a00009d0:	00d12823          	sw	a3,16(sp)
a00009d4:	00f12023          	sw	a5,0(sp)
a00009d8:	268000ef          	jal	ra,a0000c40 <__clzsi2>
a00009dc:	00012703          	lw	a4,0(sp)
a00009e0:	00050613          	mv	a2,a0
a00009e4:	00c12023          	sw	a2,0(sp)
a00009e8:	00070513          	mv	a0,a4
a00009ec:	00e12423          	sw	a4,8(sp)
a00009f0:	250000ef          	jal	ra,a0000c40 <__clzsi2>
a00009f4:	00012603          	lw	a2,0(sp)
a00009f8:	00c12303          	lw	t1,12(sp)
a00009fc:	02000593          	li	a1,32
a0000a00:	40a60633          	sub	a2,a2,a0
a0000a04:	02160393          	addi	t2,a2,33
a0000a08:	00812703          	lw	a4,8(sp)
a0000a0c:	01012683          	lw	a3,16(sp)
a0000a10:	00030513          	mv	a0,t1
a0000a14:	00000793          	li	a5,0
a0000a18:	e4b382e3          	beq	t2,a1,a000085c <__udivmoddi4+0x164>
a0000a1c:	01f00313          	li	t1,31
a0000a20:	0a736e63          	bltu	t1,t2,a0000adc <__udivmoddi4+0x3e4>
a0000a24:	407585b3          	sub	a1,a1,t2
a0000a28:	00755633          	srl	a2,a0,t2
a0000a2c:	00b71333          	sll	t1,a4,a1
a0000a30:	007757b3          	srl	a5,a4,t2
a0000a34:	00b51533          	sll	a0,a0,a1
a0000a38:	00c36733          	or	a4,t1,a2
a0000a3c:	e21ff06f          	j	a000085c <__udivmoddi4+0x164>
a0000a40:	00412403          	lw	s0,4(sp)
a0000a44:	02040463          	beqz	s0,a0000a6c <__udivmoddi4+0x374>
a0000a48:	00068593          	mv	a1,a3
a0000a4c:	00078513          	mv	a0,a5
a0000a50:	00d12223          	sw	a3,4(sp)
a0000a54:	00f12023          	sw	a5,0(sp)
a0000a58:	344000ef          	jal	ra,a0000d9c <__umodsi3>
a0000a5c:	00412683          	lw	a3,4(sp)
a0000a60:	00012783          	lw	a5,0(sp)
a0000a64:	00042023          	sw	zero,0(s0)
a0000a68:	00a42223          	sw	a0,4(s0)
a0000a6c:	00068593          	mv	a1,a3
a0000a70:	00078513          	mv	a0,a5
a0000a74:	2e0000ef          	jal	ra,a0000d54 <__hidden___udivsi3>
a0000a78:	00000593          	li	a1,0
a0000a7c:	cd1ff06f          	j	a000074c <__udivmoddi4+0x54>
a0000a80:	00672023          	sw	t1,0(a4)
a0000a84:	00f72223          	sw	a5,4(a4)
a0000a88:	00000513          	li	a0,0
a0000a8c:	00000593          	li	a1,0
a0000a90:	cbdff06f          	j	a000074c <__udivmoddi4+0x54>
a0000a94:	00030513          	mv	a0,t1
a0000a98:	00078593          	mv	a1,a5
a0000a9c:	cb1ff06f          	j	a000074c <__udivmoddi4+0x54>
a0000aa0:	00412703          	lw	a4,4(sp)
a0000aa4:	00070863          	beqz	a4,a0000ab4 <__udivmoddi4+0x3bc>
a0000aa8:	00f67633          	and	a2,a2,a5
a0000aac:	00a72023          	sw	a0,0(a4)
a0000ab0:	00c72223          	sw	a2,4(a4)
a0000ab4:	00068513          	mv	a0,a3
a0000ab8:	00f12023          	sw	a5,0(sp)
a0000abc:	21c000ef          	jal	ra,a0000cd8 <__ctzsi2>
a0000ac0:	00012783          	lw	a5,0(sp)
a0000ac4:	00000593          	li	a1,0
a0000ac8:	00a7d533          	srl	a0,a5,a0
a0000acc:	c81ff06f          	j	a000074c <__udivmoddi4+0x54>
a0000ad0:	00000793          	li	a5,0
a0000ad4:	00000413          	li	s0,0
a0000ad8:	d85ff06f          	j	a000085c <__udivmoddi4+0x164>
a0000adc:	04000593          	li	a1,64
a0000ae0:	407585b3          	sub	a1,a1,t2
a0000ae4:	00160613          	addi	a2,a2,1
a0000ae8:	00b51433          	sll	s0,a0,a1
a0000aec:	00b715b3          	sll	a1,a4,a1
a0000af0:	00c55533          	srl	a0,a0,a2
a0000af4:	00a5e533          	or	a0,a1,a0
a0000af8:	00c75733          	srl	a4,a4,a2
a0000afc:	d61ff06f          	j	a000085c <__udivmoddi4+0x164>

a0000b00 <__divdi3>:
a0000b00:	41f5d313          	srai	t1,a1,0x1f
a0000b04:	41f6d793          	srai	a5,a3,0x1f
a0000b08:	006542b3          	xor	t0,a0,t1
a0000b0c:	00f643b3          	xor	t2,a2,a5
a0000b10:	40f38633          	sub	a2,t2,a5
a0000b14:	40628533          	sub	a0,t0,t1
a0000b18:	0065c5b3          	xor	a1,a1,t1
a0000b1c:	00f6c6b3          	xor	a3,a3,a5
a0000b20:	00c3b3b3          	sltu	t2,t2,a2
a0000b24:	40f686b3          	sub	a3,a3,a5
a0000b28:	00a2b2b3          	sltu	t0,t0,a0
a0000b2c:	406585b3          	sub	a1,a1,t1
a0000b30:	ff410113          	addi	sp,sp,-12
a0000b34:	00000713          	li	a4,0
a0000b38:	407686b3          	sub	a3,a3,t2
a0000b3c:	405585b3          	sub	a1,a1,t0
a0000b40:	00812223          	sw	s0,4(sp)
a0000b44:	00112423          	sw	ra,8(sp)
a0000b48:	00f34433          	xor	s0,t1,a5
a0000b4c:	badff0ef          	jal	ra,a00006f8 <__udivmoddi4>
a0000b50:	00854733          	xor	a4,a0,s0
a0000b54:	0085c5b3          	xor	a1,a1,s0
a0000b58:	40870533          	sub	a0,a4,s0
a0000b5c:	00812083          	lw	ra,8(sp)
a0000b60:	408585b3          	sub	a1,a1,s0
a0000b64:	00412403          	lw	s0,4(sp)
a0000b68:	00a73733          	sltu	a4,a4,a0
a0000b6c:	40e585b3          	sub	a1,a1,a4
a0000b70:	00c10113          	addi	sp,sp,12
a0000b74:	00008067          	ret

a0000b78 <__moddi3>:
a0000b78:	fe810113          	addi	sp,sp,-24
a0000b7c:	00812823          	sw	s0,16(sp)
a0000b80:	41f6d313          	srai	t1,a3,0x1f
a0000b84:	41f5d413          	srai	s0,a1,0x1f
a0000b88:	00854733          	xor	a4,a0,s0
a0000b8c:	006647b3          	xor	a5,a2,t1
a0000b90:	00912623          	sw	s1,12(sp)
a0000b94:	40870533          	sub	a0,a4,s0
a0000b98:	40678633          	sub	a2,a5,t1
a0000b9c:	0066c6b3          	xor	a3,a3,t1
a0000ba0:	0085c5b3          	xor	a1,a1,s0
a0000ba4:	00710493          	addi	s1,sp,7
a0000ba8:	ff84f493          	andi	s1,s1,-8
a0000bac:	00c7b7b3          	sltu	a5,a5,a2
a0000bb0:	406686b3          	sub	a3,a3,t1
a0000bb4:	408585b3          	sub	a1,a1,s0
a0000bb8:	00a73333          	sltu	t1,a4,a0
a0000bbc:	40f686b3          	sub	a3,a3,a5
a0000bc0:	00048713          	mv	a4,s1
a0000bc4:	406585b3          	sub	a1,a1,t1
a0000bc8:	00112a23          	sw	ra,20(sp)
a0000bcc:	b2dff0ef          	jal	ra,a00006f8 <__udivmoddi4>
a0000bd0:	0004a783          	lw	a5,0(s1)
a0000bd4:	0044a583          	lw	a1,4(s1)
a0000bd8:	01412083          	lw	ra,20(sp)
a0000bdc:	0087c7b3          	xor	a5,a5,s0
a0000be0:	0085c5b3          	xor	a1,a1,s0
a0000be4:	40878533          	sub	a0,a5,s0
a0000be8:	408585b3          	sub	a1,a1,s0
a0000bec:	01012403          	lw	s0,16(sp)
a0000bf0:	00a7b7b3          	sltu	a5,a5,a0
a0000bf4:	00c12483          	lw	s1,12(sp)
a0000bf8:	40f585b3          	sub	a1,a1,a5
a0000bfc:	01810113          	addi	sp,sp,24
a0000c00:	00008067          	ret

a0000c04 <__udivdi3>:
a0000c04:	00000713          	li	a4,0
a0000c08:	af1ff06f          	j	a00006f8 <__udivmoddi4>

a0000c0c <__umoddi3>:
a0000c0c:	fe810113          	addi	sp,sp,-24
a0000c10:	00812823          	sw	s0,16(sp)
a0000c14:	00710413          	addi	s0,sp,7
a0000c18:	ff847413          	andi	s0,s0,-8
a0000c1c:	00040713          	mv	a4,s0
a0000c20:	00112a23          	sw	ra,20(sp)
a0000c24:	ad5ff0ef          	jal	ra,a00006f8 <__udivmoddi4>
a0000c28:	00042503          	lw	a0,0(s0)
a0000c2c:	00442583          	lw	a1,4(s0)
a0000c30:	01412083          	lw	ra,20(sp)
a0000c34:	01012403          	lw	s0,16(sp)
a0000c38:	01810113          	addi	sp,sp,24
a0000c3c:	00008067          	ret

a0000c40 <__clzsi2>:
a0000c40:	ffff0637          	lui	a2,0xffff0
a0000c44:	00c57633          	and	a2,a0,a2
a0000c48:	00163613          	seqz	a2,a2
a0000c4c:	00461613          	slli	a2,a2,0x4
a0000c50:	01000793          	li	a5,16
a0000c54:	40c787b3          	sub	a5,a5,a2
a0000c58:	00010737          	lui	a4,0x10
a0000c5c:	00f557b3          	srl	a5,a0,a5
a0000c60:	f0070713          	addi	a4,a4,-256 # ff00 <_sram_size+0xdf00>
a0000c64:	00e7f733          	and	a4,a5,a4
a0000c68:	00173713          	seqz	a4,a4
a0000c6c:	00371713          	slli	a4,a4,0x3
a0000c70:	00800693          	li	a3,8
a0000c74:	40e686b3          	sub	a3,a3,a4
a0000c78:	00d7d7b3          	srl	a5,a5,a3
a0000c7c:	0f07f593          	andi	a1,a5,240
a0000c80:	0015b593          	seqz	a1,a1
a0000c84:	00259593          	slli	a1,a1,0x2
a0000c88:	00400693          	li	a3,4
a0000c8c:	40b686b3          	sub	a3,a3,a1
a0000c90:	00d7d7b3          	srl	a5,a5,a3
a0000c94:	00c7f513          	andi	a0,a5,12
a0000c98:	00153513          	seqz	a0,a0
a0000c9c:	00151513          	slli	a0,a0,0x1
a0000ca0:	00200313          	li	t1,2
a0000ca4:	40a306b3          	sub	a3,t1,a0
a0000ca8:	00d7d7b3          	srl	a5,a5,a3
a0000cac:	0017d693          	srli	a3,a5,0x1
a0000cb0:	0016c693          	xori	a3,a3,1
a0000cb4:	00c70733          	add	a4,a4,a2
a0000cb8:	0016f693          	andi	a3,a3,1
a0000cbc:	00e585b3          	add	a1,a1,a4
a0000cc0:	40f30333          	sub	t1,t1,a5
a0000cc4:	40d006b3          	neg	a3,a3
a0000cc8:	0066f6b3          	and	a3,a3,t1
a0000ccc:	00b50533          	add	a0,a0,a1
a0000cd0:	00a68533          	add	a0,a3,a0
a0000cd4:	00008067          	ret

a0000cd8 <__ctzsi2>:
a0000cd8:	01051593          	slli	a1,a0,0x10
a0000cdc:	0105d593          	srli	a1,a1,0x10
a0000ce0:	0015b593          	seqz	a1,a1
a0000ce4:	00459593          	slli	a1,a1,0x4
a0000ce8:	00b557b3          	srl	a5,a0,a1
a0000cec:	0ff7f613          	zext.b	a2,a5
a0000cf0:	00163613          	seqz	a2,a2
a0000cf4:	00361613          	slli	a2,a2,0x3
a0000cf8:	00c7d7b3          	srl	a5,a5,a2
a0000cfc:	00f7f693          	andi	a3,a5,15
a0000d00:	0016b693          	seqz	a3,a3
a0000d04:	00269693          	slli	a3,a3,0x2
a0000d08:	00d7d7b3          	srl	a5,a5,a3
a0000d0c:	0037f713          	andi	a4,a5,3
a0000d10:	00173713          	seqz	a4,a4
a0000d14:	00171713          	slli	a4,a4,0x1
a0000d18:	00e7d7b3          	srl	a5,a5,a4
a0000d1c:	0017d513          	srli	a0,a5,0x1
a0000d20:	00b60633          	add	a2,a2,a1
a0000d24:	0017f793          	andi	a5,a5,1
a0000d28:	00157593          	andi	a1,a0,1
a0000d2c:	00200513          	li	a0,2
a0000d30:	40b50533          	sub	a0,a0,a1
a0000d34:	00c686b3          	add	a3,a3,a2
a0000d38:	fff78793          	addi	a5,a5,-1
a0000d3c:	00f577b3          	and	a5,a0,a5
a0000d40:	00d70533          	add	a0,a4,a3
a0000d44:	00a78533          	add	a0,a5,a0
a0000d48:	00008067          	ret

a0000d4c <__divsi3>:
a0000d4c:	06054063          	bltz	a0,a0000dac <__umodsi3+0x10>
a0000d50:	0605c663          	bltz	a1,a0000dbc <__umodsi3+0x20>

a0000d54 <__hidden___udivsi3>:
a0000d54:	00058613          	mv	a2,a1
a0000d58:	00050593          	mv	a1,a0
a0000d5c:	fff00513          	li	a0,-1
a0000d60:	02060c63          	beqz	a2,a0000d98 <__hidden___udivsi3+0x44>
a0000d64:	00100693          	li	a3,1
a0000d68:	00b67a63          	bgeu	a2,a1,a0000d7c <__hidden___udivsi3+0x28>
a0000d6c:	00c05863          	blez	a2,a0000d7c <__hidden___udivsi3+0x28>
a0000d70:	00161613          	slli	a2,a2,0x1
a0000d74:	00169693          	slli	a3,a3,0x1
a0000d78:	feb66ae3          	bltu	a2,a1,a0000d6c <__hidden___udivsi3+0x18>
a0000d7c:	00000513          	li	a0,0
a0000d80:	00c5e663          	bltu	a1,a2,a0000d8c <__hidden___udivsi3+0x38>
a0000d84:	40c585b3          	sub	a1,a1,a2
a0000d88:	00d56533          	or	a0,a0,a3
a0000d8c:	0016d693          	srli	a3,a3,0x1
a0000d90:	00165613          	srli	a2,a2,0x1
a0000d94:	fe0696e3          	bnez	a3,a0000d80 <__hidden___udivsi3+0x2c>
a0000d98:	00008067          	ret

a0000d9c <__umodsi3>:
a0000d9c:	00008293          	mv	t0,ra
a0000da0:	fb5ff0ef          	jal	ra,a0000d54 <__hidden___udivsi3>
a0000da4:	00058513          	mv	a0,a1
a0000da8:	00028067          	jr	t0
a0000dac:	40a00533          	neg	a0,a0
a0000db0:	00b04863          	bgtz	a1,a0000dc0 <__umodsi3+0x24>
a0000db4:	40b005b3          	neg	a1,a1
a0000db8:	f9dff06f          	j	a0000d54 <__hidden___udivsi3>
a0000dbc:	40b005b3          	neg	a1,a1
a0000dc0:	00008293          	mv	t0,ra
a0000dc4:	f91ff0ef          	jal	ra,a0000d54 <__hidden___udivsi3>
a0000dc8:	40a00533          	neg	a0,a0
a0000dcc:	00028067          	jr	t0

a0000dd0 <__modsi3>:
a0000dd0:	00008293          	mv	t0,ra
a0000dd4:	0005ca63          	bltz	a1,a0000de8 <__modsi3+0x18>
a0000dd8:	00054c63          	bltz	a0,a0000df0 <__modsi3+0x20>
a0000ddc:	f79ff0ef          	jal	ra,a0000d54 <__hidden___udivsi3>
a0000de0:	00058513          	mv	a0,a1
a0000de4:	00028067          	jr	t0
a0000de8:	40b005b3          	neg	a1,a1
a0000dec:	fe0558e3          	bgez	a0,a0000ddc <__modsi3+0xc>
a0000df0:	40a00533          	neg	a0,a0
a0000df4:	f61ff0ef          	jal	ra,a0000d54 <__hidden___udivsi3>
a0000df8:	40b00533          	neg	a0,a1
a0000dfc:	00028067          	jr	t0
