
/home/meowth/ysyx/ysyx-workbench/am-kernels/tests/cpu-tests/build/if-else-riscv32e-ysyx-soc.elf:     file format elf32-littleriscv


Disassembly of section .text.fsbl:

30000000 <_start>:
30000000:	00000413          	li	s0,0
30000004:	df002117          	auipc	sp,0xdf002
30000008:	afc10113          	addi	sp,sp,-1284 # f001b00 <_stack_pointer>
3000000c:	004000ef          	jal	ra,30000010 <fsbl_load>

30000010 <fsbl_load>:
30000010:	ff410113          	addi	sp,sp,-12
30000014:	00112423          	sw	ra,8(sp)
30000018:	70000317          	auipc	t1,0x70000
3000001c:	fe830313          	addi	t1,t1,-24 # a0000000 <ssbl_load>
30000020:	70000597          	auipc	a1,0x70000
30000024:	04458593          	addi	a1,a1,68 # a0000064 <check>
30000028:	00000517          	auipc	a0,0x0
3000002c:	04050513          	addi	a0,a0,64 # 30000068 <_efsbl_load>
30000030:	02b37863          	bgeu	t1,a1,30000060 <fsbl_load+0x50>
30000034:	00030793          	mv	a5,t1
30000038:	00050693          	mv	a3,a0
3000003c:	0006c703          	lbu	a4,0(a3)
30000040:	00078613          	mv	a2,a5
30000044:	00178793          	addi	a5,a5,1
30000048:	0ff77713          	zext.b	a4,a4
3000004c:	00e60023          	sb	a4,0(a2)
30000050:	00168693          	addi	a3,a3,1
30000054:	feb794e3          	bne	a5,a1,3000003c <fsbl_load+0x2c>
30000058:	406787b3          	sub	a5,a5,t1
3000005c:	00f50533          	add	a0,a0,a5
30000060:	70000097          	auipc	ra,0x70000
30000064:	fa0080e7          	jalr	-96(ra) # a0000000 <ssbl_load>

Disassembly of section .text.ssbl:

a0000000 <ssbl_load>:
a0000000:	ff410113          	addi	sp,sp,-12
a0000004:	00112423          	sw	ra,8(sp)
a0000008:	00000797          	auipc	a5,0x0
a000000c:	05c78793          	addi	a5,a5,92 # a0000064 <_essbl_load>
a0000010:	00000617          	auipc	a2,0x0
a0000014:	1fc60613          	addi	a2,a2,508 # a000020c <_bss_end>
a0000018:	02c7f063          	bgeu	a5,a2,a0000038 <ssbl_load+0x38>
a000001c:	00054703          	lbu	a4,0(a0)
a0000020:	00078693          	mv	a3,a5
a0000024:	00178793          	addi	a5,a5,1
a0000028:	0ff77713          	zext.b	a4,a4
a000002c:	00e68023          	sb	a4,0(a3)
a0000030:	00150513          	addi	a0,a0,1
a0000034:	fec794e3          	bne	a5,a2,a000001c <ssbl_load+0x1c>
a0000038:	00000697          	auipc	a3,0x0
a000003c:	1d468693          	addi	a3,a3,468 # a000020c <_bss_end>
a0000040:	00000797          	auipc	a5,0x0
a0000044:	1cc78793          	addi	a5,a5,460 # a000020c <_bss_end>
a0000048:	40f68733          	sub	a4,a3,a5
a000004c:	00f68a63          	beq	a3,a5,a0000060 <ssbl_load+0x60>
a0000050:	00e78733          	add	a4,a5,a4
a0000054:	00078023          	sb	zero,0(a5)
a0000058:	00178793          	addi	a5,a5,1
a000005c:	fef71ce3          	bne	a4,a5,a0000054 <ssbl_load+0x54>
a0000060:	0c0000ef          	jal	ra,a0000120 <_trm_init>

Disassembly of section .text:

a0000064 <check>:
a0000064:	00050463          	beqz	a0,a000006c <check+0x8>
a0000068:	00008067          	ret
a000006c:	ff410113          	addi	sp,sp,-12
a0000070:	00100513          	li	a0,1
a0000074:	00112423          	sw	ra,8(sp)
a0000078:	0a0000ef          	jal	ra,a0000118 <halt>

a000007c <main>:
a000007c:	ff410113          	addi	sp,sp,-12
a0000080:	00812223          	sw	s0,4(sp)
a0000084:	00912023          	sw	s1,0(sp)
a0000088:	00112423          	sw	ra,8(sp)
a000008c:	00000497          	auipc	s1,0x0
a0000090:	14848493          	addi	s1,s1,328 # a00001d4 <test_data>
a0000094:	00000417          	auipc	s0,0x0
a0000098:	10840413          	addi	s0,s0,264 # a000019c <ans>
a000009c:	0004a703          	lw	a4,0(s1)
a00000a0:	1f400793          	li	a5,500
a00000a4:	00448493          	addi	s1,s1,4
a00000a8:	12c00513          	li	a0,300
a00000ac:	06400313          	li	t1,100
a00000b0:	09600593          	li	a1,150
a00000b4:	02e7c263          	blt	a5,a4,a00000d8 <main+0x5c>
a00000b8:	03200693          	li	a3,50
a00000bc:	00e6a6b3          	slt	a3,a3,a4
a00000c0:	40d006b3          	neg	a3,a3
a00000c4:	06400593          	li	a1,100
a00000c8:	00e54863          	blt	a0,a4,a00000d8 <main+0x5c>
a00000cc:	04b00593          	li	a1,75
a00000d0:	00e34463          	blt	t1,a4,a00000d8 <main+0x5c>
a00000d4:	0326f593          	andi	a1,a3,50
a00000d8:	00042503          	lw	a0,0(s0)
a00000dc:	00440413          	addi	s0,s0,4
a00000e0:	40b50533          	sub	a0,a0,a1
a00000e4:	00153513          	seqz	a0,a0
a00000e8:	f7dff0ef          	jal	ra,a0000064 <check>
a00000ec:	00000797          	auipc	a5,0x0
a00000f0:	12078793          	addi	a5,a5,288 # a000020c <_bss_end>
a00000f4:	faf494e3          	bne	s1,a5,a000009c <main+0x20>
a00000f8:	00100513          	li	a0,1
a00000fc:	f69ff0ef          	jal	ra,a0000064 <check>
a0000100:	00812083          	lw	ra,8(sp)
a0000104:	00412403          	lw	s0,4(sp)
a0000108:	00012483          	lw	s1,0(sp)
a000010c:	00000513          	li	a0,0
a0000110:	00c10113          	addi	sp,sp,12
a0000114:	00008067          	ret

a0000118 <halt>:
a0000118:	00100073          	ebreak
a000011c:	0000006f          	j	a000011c <halt+0x4>

a0000120 <_trm_init>:
a0000120:	ff410113          	addi	sp,sp,-12
a0000124:	00112423          	sw	ra,8(sp)
a0000128:	100007b7          	lui	a5,0x10000
a000012c:	f8000713          	li	a4,-128
a0000130:	00e781a3          	sb	a4,3(a5) # 10000003 <_stack_pointer+0xffe503>
a0000134:	00100713          	li	a4,1
a0000138:	00e78023          	sb	a4,0(a5)
a000013c:	000780a3          	sb	zero,1(a5)
a0000140:	00300713          	li	a4,3
a0000144:	00e781a3          	sb	a4,3(a5)
a0000148:	00000517          	auipc	a0,0x0
a000014c:	01450513          	addi	a0,a0,20 # a000015c <_etext>
a0000150:	f2dff0ef          	jal	ra,a000007c <main>
a0000154:	00100073          	ebreak
a0000158:	0000006f          	j	a0000158 <_trm_init+0x38>
