
/home/meowth/ysyx/ysyx-workbench/am-kernels/tests/cpu-tests/build/shuixianhua-riscv32e-ysyx-soc.elf:     file format elf32-littleriscv


Disassembly of section .text.fsbl:

30000000 <_start>:
30000000:	00000413          	li	s0,0
30000004:	df002117          	auipc	sp,0xdf002
30000008:	afc10113          	addi	sp,sp,-1284 # f001b00 <_stack_pointer>
3000000c:	004000ef          	jal	ra,30000010 <fsbl_load>

30000010 <fsbl_load>:
30000010:	ff410113          	addi	sp,sp,-12
30000014:	00112423          	sw	ra,8(sp)
30000018:	70000317          	auipc	t1,0x70000
3000001c:	fe830313          	addi	t1,t1,-24 # a0000000 <ssbl_load>
30000020:	70000597          	auipc	a1,0x70000
30000024:	04458593          	addi	a1,a1,68 # a0000064 <check>
30000028:	00000517          	auipc	a0,0x0
3000002c:	04050513          	addi	a0,a0,64 # 30000068 <_efsbl_load>
30000030:	02b37863          	bgeu	t1,a1,30000060 <fsbl_load+0x50>
30000034:	00030793          	mv	a5,t1
30000038:	00050693          	mv	a3,a0
3000003c:	0006c703          	lbu	a4,0(a3)
30000040:	00078613          	mv	a2,a5
30000044:	00178793          	addi	a5,a5,1
30000048:	0ff77713          	zext.b	a4,a4
3000004c:	00e60023          	sb	a4,0(a2)
30000050:	00168693          	addi	a3,a3,1
30000054:	feb794e3          	bne	a5,a1,3000003c <fsbl_load+0x2c>
30000058:	406787b3          	sub	a5,a5,t1
3000005c:	00f50533          	add	a0,a0,a5
30000060:	70000097          	auipc	ra,0x70000
30000064:	fa0080e7          	jalr	-96(ra) # a0000000 <ssbl_load>

Disassembly of section .text.ssbl:

a0000000 <ssbl_load>:
a0000000:	ff410113          	addi	sp,sp,-12
a0000004:	00112423          	sw	ra,8(sp)
a0000008:	00000797          	auipc	a5,0x0
a000000c:	05c78793          	addi	a5,a5,92 # a0000064 <_essbl_load>
a0000010:	00000617          	auipc	a2,0x0
a0000014:	2f460613          	addi	a2,a2,756 # a0000304 <_bss_end>
a0000018:	02c7f063          	bgeu	a5,a2,a0000038 <ssbl_load+0x38>
a000001c:	00054703          	lbu	a4,0(a0)
a0000020:	00078693          	mv	a3,a5
a0000024:	00178793          	addi	a5,a5,1
a0000028:	0ff77713          	zext.b	a4,a4
a000002c:	00e68023          	sb	a4,0(a3)
a0000030:	00150513          	addi	a0,a0,1
a0000034:	fec794e3          	bne	a5,a2,a000001c <ssbl_load+0x1c>
a0000038:	00000697          	auipc	a3,0x0
a000003c:	2cc68693          	addi	a3,a3,716 # a0000304 <_bss_end>
a0000040:	00000797          	auipc	a5,0x0
a0000044:	2c478793          	addi	a5,a5,708 # a0000304 <_bss_end>
a0000048:	40f68733          	sub	a4,a3,a5
a000004c:	00f68a63          	beq	a3,a5,a0000060 <ssbl_load+0x60>
a0000050:	00e78733          	add	a4,a5,a4
a0000054:	00078023          	sb	zero,0(a5)
a0000058:	00178793          	addi	a5,a5,1
a000005c:	fef71ce3          	bne	a4,a5,a0000054 <ssbl_load+0x54>
a0000060:	160000ef          	jal	ra,a00001c0 <_trm_init>

Disassembly of section .text:

a0000064 <check>:
a0000064:	00050463          	beqz	a0,a000006c <check+0x8>
a0000068:	00008067          	ret
a000006c:	ff410113          	addi	sp,sp,-12
a0000070:	00100513          	li	a0,1
a0000074:	00112423          	sw	ra,8(sp)
a0000078:	140000ef          	jal	ra,a00001b8 <halt>

a000007c <main>:
a000007c:	fe810113          	addi	sp,sp,-24
a0000080:	00912623          	sw	s1,12(sp)
a0000084:	00112a23          	sw	ra,20(sp)
a0000088:	00812823          	sw	s0,16(sp)
a000008c:	06400493          	li	s1,100
a0000090:	00012423          	sw	zero,8(sp)
a0000094:	00148493          	addi	s1,s1,1
a0000098:	1f400793          	li	a5,500
a000009c:	06400593          	li	a1,100
a00000a0:	00048513          	mv	a0,s1
a00000a4:	0ef48663          	beq	s1,a5,a0000190 <main+0x114>
a00000a8:	134000ef          	jal	ra,a00001dc <__divsi3>
a00000ac:	00050613          	mv	a2,a0
a00000b0:	00a00593          	li	a1,10
a00000b4:	00048513          	mv	a0,s1
a00000b8:	00c12223          	sw	a2,4(sp)
a00000bc:	120000ef          	jal	ra,a00001dc <__divsi3>
a00000c0:	00a00593          	li	a1,10
a00000c4:	19c000ef          	jal	ra,a0000260 <__modsi3>
a00000c8:	00050793          	mv	a5,a0
a00000cc:	00a00593          	li	a1,10
a00000d0:	00048513          	mv	a0,s1
a00000d4:	00f12023          	sw	a5,0(sp)
a00000d8:	188000ef          	jal	ra,a0000260 <__modsi3>
a00000dc:	00012783          	lw	a5,0(sp)
a00000e0:	00050413          	mv	s0,a0
a00000e4:	00078593          	mv	a1,a5
a00000e8:	00078513          	mv	a0,a5
a00000ec:	1a4000ef          	jal	ra,a0000290 <__mulsi3>
a00000f0:	00012783          	lw	a5,0(sp)
a00000f4:	00078593          	mv	a1,a5
a00000f8:	198000ef          	jal	ra,a0000290 <__mulsi3>
a00000fc:	00412603          	lw	a2,4(sp)
a0000100:	00050793          	mv	a5,a0
a0000104:	00f12023          	sw	a5,0(sp)
a0000108:	00060593          	mv	a1,a2
a000010c:	00060513          	mv	a0,a2
a0000110:	180000ef          	jal	ra,a0000290 <__mulsi3>
a0000114:	00412603          	lw	a2,4(sp)
a0000118:	00060593          	mv	a1,a2
a000011c:	174000ef          	jal	ra,a0000290 <__mulsi3>
a0000120:	00012783          	lw	a5,0(sp)
a0000124:	00050613          	mv	a2,a0
a0000128:	00040593          	mv	a1,s0
a000012c:	00c787b3          	add	a5,a5,a2
a0000130:	00040513          	mv	a0,s0
a0000134:	00f12023          	sw	a5,0(sp)
a0000138:	158000ef          	jal	ra,a0000290 <__mulsi3>
a000013c:	00040593          	mv	a1,s0
a0000140:	150000ef          	jal	ra,a0000290 <__mulsi3>
a0000144:	00012783          	lw	a5,0(sp)
a0000148:	00a787b3          	add	a5,a5,a0
a000014c:	f49794e3          	bne	a5,s1,a0000094 <main+0x18>
a0000150:	00812703          	lw	a4,8(sp)
a0000154:	00000697          	auipc	a3,0x0
a0000158:	1a068693          	addi	a3,a3,416 # a00002f4 <ans>
a000015c:	00271793          	slli	a5,a4,0x2
a0000160:	00f687b3          	add	a5,a3,a5
a0000164:	0007a503          	lw	a0,0(a5)
a0000168:	00170793          	addi	a5,a4,1
a000016c:	00f12423          	sw	a5,8(sp)
a0000170:	40950533          	sub	a0,a0,s1
a0000174:	00153513          	seqz	a0,a0
a0000178:	eedff0ef          	jal	ra,a0000064 <check>
a000017c:	00148493          	addi	s1,s1,1
a0000180:	1f400793          	li	a5,500
a0000184:	06400593          	li	a1,100
a0000188:	00048513          	mv	a0,s1
a000018c:	f0f49ee3          	bne	s1,a5,a00000a8 <main+0x2c>
a0000190:	00812783          	lw	a5,8(sp)
a0000194:	ffc78513          	addi	a0,a5,-4
a0000198:	00153513          	seqz	a0,a0
a000019c:	ec9ff0ef          	jal	ra,a0000064 <check>
a00001a0:	01412083          	lw	ra,20(sp)
a00001a4:	01012403          	lw	s0,16(sp)
a00001a8:	00c12483          	lw	s1,12(sp)
a00001ac:	00000513          	li	a0,0
a00001b0:	01810113          	addi	sp,sp,24
a00001b4:	00008067          	ret

a00001b8 <halt>:
a00001b8:	00100073          	ebreak
a00001bc:	0000006f          	j	a00001bc <halt+0x4>

a00001c0 <_trm_init>:
a00001c0:	ff410113          	addi	sp,sp,-12
a00001c4:	00000517          	auipc	a0,0x0
a00001c8:	0f050513          	addi	a0,a0,240 # a00002b4 <_etext>
a00001cc:	00112423          	sw	ra,8(sp)
a00001d0:	eadff0ef          	jal	ra,a000007c <main>
a00001d4:	00100073          	ebreak
a00001d8:	0000006f          	j	a00001d8 <_trm_init+0x18>

a00001dc <__divsi3>:
a00001dc:	06054063          	bltz	a0,a000023c <__umodsi3+0x10>
a00001e0:	0605c663          	bltz	a1,a000024c <__umodsi3+0x20>

a00001e4 <__hidden___udivsi3>:
a00001e4:	00058613          	mv	a2,a1
a00001e8:	00050593          	mv	a1,a0
a00001ec:	fff00513          	li	a0,-1
a00001f0:	02060c63          	beqz	a2,a0000228 <__hidden___udivsi3+0x44>
a00001f4:	00100693          	li	a3,1
a00001f8:	00b67a63          	bgeu	a2,a1,a000020c <__hidden___udivsi3+0x28>
a00001fc:	00c05863          	blez	a2,a000020c <__hidden___udivsi3+0x28>
a0000200:	00161613          	slli	a2,a2,0x1
a0000204:	00169693          	slli	a3,a3,0x1
a0000208:	feb66ae3          	bltu	a2,a1,a00001fc <__hidden___udivsi3+0x18>
a000020c:	00000513          	li	a0,0
a0000210:	00c5e663          	bltu	a1,a2,a000021c <__hidden___udivsi3+0x38>
a0000214:	40c585b3          	sub	a1,a1,a2
a0000218:	00d56533          	or	a0,a0,a3
a000021c:	0016d693          	srli	a3,a3,0x1
a0000220:	00165613          	srli	a2,a2,0x1
a0000224:	fe0696e3          	bnez	a3,a0000210 <__hidden___udivsi3+0x2c>
a0000228:	00008067          	ret

a000022c <__umodsi3>:
a000022c:	00008293          	mv	t0,ra
a0000230:	fb5ff0ef          	jal	ra,a00001e4 <__hidden___udivsi3>
a0000234:	00058513          	mv	a0,a1
a0000238:	00028067          	jr	t0
a000023c:	40a00533          	neg	a0,a0
a0000240:	00b04863          	bgtz	a1,a0000250 <__umodsi3+0x24>
a0000244:	40b005b3          	neg	a1,a1
a0000248:	f9dff06f          	j	a00001e4 <__hidden___udivsi3>
a000024c:	40b005b3          	neg	a1,a1
a0000250:	00008293          	mv	t0,ra
a0000254:	f91ff0ef          	jal	ra,a00001e4 <__hidden___udivsi3>
a0000258:	40a00533          	neg	a0,a0
a000025c:	00028067          	jr	t0

a0000260 <__modsi3>:
a0000260:	00008293          	mv	t0,ra
a0000264:	0005ca63          	bltz	a1,a0000278 <__modsi3+0x18>
a0000268:	00054c63          	bltz	a0,a0000280 <__modsi3+0x20>
a000026c:	f79ff0ef          	jal	ra,a00001e4 <__hidden___udivsi3>
a0000270:	00058513          	mv	a0,a1
a0000274:	00028067          	jr	t0
a0000278:	40b005b3          	neg	a1,a1
a000027c:	fe0558e3          	bgez	a0,a000026c <__modsi3+0xc>
a0000280:	40a00533          	neg	a0,a0
a0000284:	f61ff0ef          	jal	ra,a00001e4 <__hidden___udivsi3>
a0000288:	40b00533          	neg	a0,a1
a000028c:	00028067          	jr	t0

a0000290 <__mulsi3>:
a0000290:	00050613          	mv	a2,a0
a0000294:	00000513          	li	a0,0
a0000298:	0015f693          	andi	a3,a1,1
a000029c:	00068463          	beqz	a3,a00002a4 <__mulsi3+0x14>
a00002a0:	00c50533          	add	a0,a0,a2
a00002a4:	0015d593          	srli	a1,a1,0x1
a00002a8:	00161613          	slli	a2,a2,0x1
a00002ac:	fe0596e3          	bnez	a1,a0000298 <__mulsi3+0x8>
a00002b0:	00008067          	ret
