
/home/meowth/ysyx/ysyx-workbench/am-kernels/kernels/typing-game/build/typing-game-riscv32e-nemu.elf:     file format elf32-littleriscv


Disassembly of section .text:

80000000 <_start>:
80000000:	00000413          	li	s0,0
80000004:	00015117          	auipc	sp,0x15
80000008:	ffc10113          	addi	sp,sp,-4 # 80015000 <_end>
8000000c:	09d000ef          	jal	ra,800008a8 <_trm_init>

80000010 <new_char>:
80000010:	ff010113          	addi	sp,sp,-16
80000014:	00002617          	auipc	a2,0x2
80000018:	e9060613          	addi	a2,a2,-368 # 80001ea4 <chars>
8000001c:	00812423          	sw	s0,8(sp)
80000020:	00112623          	sw	ra,12(sp)
80000024:	00912223          	sw	s1,4(sp)
80000028:	00060793          	mv	a5,a2
8000002c:	00000413          	li	s0,0
80000030:	08000693          	li	a3,128
80000034:	00c0006f          	j	80000040 <new_char+0x30>
80000038:	00140413          	addi	s0,s0,1
8000003c:	08d40a63          	beq	s0,a3,800000d0 <new_char+0xc0>
80000040:	0007c703          	lbu	a4,0(a5)
80000044:	01478793          	addi	a5,a5,20
80000048:	fe0718e3          	bnez	a4,80000038 <new_char+0x28>
8000004c:	800004b7          	lui	s1,0x80000
80000050:	2e9000ef          	jal	ra,80000b38 <rand>
80000054:	fff4c493          	not	s1,s1
80000058:	009577b3          	and	a5,a0,s1
8000005c:	01a00713          	li	a4,26
80000060:	02e7e7b3          	rem	a5,a5,a4
80000064:	00241713          	slli	a4,s0,0x2
80000068:	00870733          	add	a4,a4,s0
8000006c:	00002617          	auipc	a2,0x2
80000070:	e3860613          	addi	a2,a2,-456 # 80001ea4 <chars>
80000074:	00271713          	slli	a4,a4,0x2
80000078:	00e60433          	add	s0,a2,a4
8000007c:	0000d717          	auipc	a4,0xd
80000080:	83872703          	lw	a4,-1992(a4) # 8000c8b4 <screen_w>
80000084:	00e12023          	sw	a4,0(sp)
80000088:	04178793          	addi	a5,a5,65
8000008c:	00f40023          	sb	a5,0(s0)
80000090:	2a9000ef          	jal	ra,80000b38 <rand>
80000094:	00012703          	lw	a4,0(sp)
80000098:	009577b3          	and	a5,a0,s1
8000009c:	00042423          	sw	zero,8(s0)
800000a0:	ff970713          	addi	a4,a4,-7
800000a4:	02e7e7b3          	rem	a5,a5,a4
800000a8:	0000d497          	auipc	s1,0xd
800000ac:	8084a483          	lw	s1,-2040(s1) # 8000c8b0 <screen_h>
800000b0:	ff148493          	addi	s1,s1,-15
800000b4:	00f42223          	sw	a5,4(s0)
800000b8:	281000ef          	jal	ra,80000b38 <rand>
800000bc:	00f57793          	andi	a5,a0,15
800000c0:	02d78793          	addi	a5,a5,45
800000c4:	02f4c4b3          	div	s1,s1,a5
800000c8:	00042823          	sw	zero,16(s0)
800000cc:	00942623          	sw	s1,12(s0)
800000d0:	00c12083          	lw	ra,12(sp)
800000d4:	00812403          	lw	s0,8(sp)
800000d8:	00412483          	lw	s1,4(sp)
800000dc:	01010113          	addi	sp,sp,16
800000e0:	00008067          	ret

800000e4 <game_logic_update>:
800000e4:	00600793          	li	a5,6
800000e8:	02f567b3          	rem	a5,a0,a5
800000ec:	ff410113          	addi	sp,sp,-12
800000f0:	00112423          	sw	ra,8(sp)
800000f4:	00812223          	sw	s0,4(sp)
800000f8:	0a078c63          	beqz	a5,800001b0 <game_logic_update+0xcc>
800000fc:	0000c397          	auipc	t2,0xc
80000100:	7ac38393          	addi	t2,t2,1964 # 8000c8a8 <miss>
80000104:	0000c617          	auipc	a2,0xc
80000108:	7ac62603          	lw	a2,1964(a2) # 8000c8b0 <screen_h>
8000010c:	0003a583          	lw	a1,0(t2)
80000110:	ff060293          	addi	t0,a2,-16
80000114:	00002797          	auipc	a5,0x2
80000118:	d9078793          	addi	a5,a5,-624 # 80001ea4 <chars>
8000011c:	00002697          	auipc	a3,0x2
80000120:	78868693          	addi	a3,a3,1928 # 800028a4 <texture>
80000124:	00000513          	li	a0,0
80000128:	01e00313          	li	t1,30
8000012c:	0180006f          	j	80000144 <game_logic_update+0x60>
80000130:	0087a823          	sw	s0,16(a5)
80000134:	00041463          	bnez	s0,8000013c <game_logic_update+0x58>
80000138:	00078023          	sb	zero,0(a5)
8000013c:	01478793          	addi	a5,a5,20
80000140:	04d78863          	beq	a5,a3,80000190 <game_logic_update+0xac>
80000144:	0007c703          	lbu	a4,0(a5)
80000148:	fe070ae3          	beqz	a4,8000013c <game_logic_update+0x58>
8000014c:	0107a703          	lw	a4,16(a5)
80000150:	fff70413          	addi	s0,a4,-1
80000154:	fce04ee3          	bgtz	a4,80000130 <game_logic_update+0x4c>
80000158:	0087a703          	lw	a4,8(a5)
8000015c:	00c7a403          	lw	s0,12(a5)
80000160:	00870733          	add	a4,a4,s0
80000164:	00e7a423          	sw	a4,8(a5)
80000168:	01070413          	addi	s0,a4,16
8000016c:	02074e63          	bltz	a4,800001a8 <game_logic_update+0xc4>
80000170:	fcc446e3          	blt	s0,a2,8000013c <game_logic_update+0x58>
80000174:	0007a623          	sw	zero,12(a5)
80000178:	0057a423          	sw	t0,8(a5)
8000017c:	0067a823          	sw	t1,16(a5)
80000180:	01478793          	addi	a5,a5,20
80000184:	00158593          	addi	a1,a1,1
80000188:	00100513          	li	a0,1
8000018c:	fad79ce3          	bne	a5,a3,80000144 <game_logic_update+0x60>
80000190:	00050463          	beqz	a0,80000198 <game_logic_update+0xb4>
80000194:	00b3a023          	sw	a1,0(t2)
80000198:	00812083          	lw	ra,8(sp)
8000019c:	00412403          	lw	s0,4(sp)
800001a0:	00c10113          	addi	sp,sp,12
800001a4:	00008067          	ret
800001a8:	00078023          	sb	zero,0(a5)
800001ac:	fc5ff06f          	j	80000170 <game_logic_update+0x8c>
800001b0:	e61ff0ef          	jal	ra,80000010 <new_char>
800001b4:	f49ff06f          	j	800000fc <game_logic_update+0x18>

800001b8 <render>:
800001b8:	0000c397          	auipc	t2,0xc
800001bc:	6f438393          	addi	t2,t2,1780 # 8000c8ac <n.0>
800001c0:	0003a783          	lw	a5,0(t2)
800001c4:	fd410113          	addi	sp,sp,-44
800001c8:	02112423          	sw	ra,40(sp)
800001cc:	02812223          	sw	s0,36(sp)
800001d0:	02912023          	sw	s1,32(sp)
800001d4:	1cf05663          	blez	a5,800003a0 <render+0x1e8>
800001d8:	00810493          	addi	s1,sp,8
800001dc:	0000c697          	auipc	a3,0xc
800001e0:	2c868693          	addi	a3,a3,712 # 8000c4a4 <x.2>
800001e4:	00048593          	mv	a1,s1
800001e8:	0000c717          	auipc	a4,0xc
800001ec:	4bc70713          	addi	a4,a4,1212 # 8000c6a4 <y.1>
800001f0:	00000413          	li	s0,0
800001f4:	00068493          	mv	s1,a3
800001f8:	00072783          	lw	a5,0(a4)
800001fc:	0004a683          	lw	a3,0(s1)
80000200:	00b00513          	li	a0,11
80000204:	00f12623          	sw	a5,12(sp)
80000208:	00002797          	auipc	a5,0x2
8000020c:	a9c78793          	addi	a5,a5,-1380 # 80001ca4 <blank>
80000210:	00f12823          	sw	a5,16(sp)
80000214:	00800793          	li	a5,8
80000218:	00f12a23          	sw	a5,20(sp)
8000021c:	01000793          	li	a5,16
80000220:	00e12223          	sw	a4,4(sp)
80000224:	00b12023          	sw	a1,0(sp)
80000228:	00f12c23          	sw	a5,24(sp)
8000022c:	00d12423          	sw	a3,8(sp)
80000230:	00010e23          	sb	zero,28(sp)
80000234:	7a0000ef          	jal	ra,800009d4 <ioe_write>
80000238:	0000c397          	auipc	t2,0xc
8000023c:	67438393          	addi	t2,t2,1652 # 8000c8ac <n.0>
80000240:	00412703          	lw	a4,4(sp)
80000244:	0003a783          	lw	a5,0(t2)
80000248:	00140413          	addi	s0,s0,1
8000024c:	00012583          	lw	a1,0(sp)
80000250:	00448493          	addi	s1,s1,4
80000254:	00470713          	addi	a4,a4,4
80000258:	faf440e3          	blt	s0,a5,800001f8 <render+0x40>
8000025c:	00058493          	mv	s1,a1
80000260:	0000c797          	auipc	a5,0xc
80000264:	6407a623          	sw	zero,1612(a5) # 8000c8ac <n.0>
80000268:	00002417          	auipc	s0,0x2
8000026c:	c3c40413          	addi	s0,s0,-964 # 80001ea4 <chars>
80000270:	00044703          	lbu	a4,0(s0)
80000274:	00048593          	mv	a1,s1
80000278:	00b00513          	li	a0,11
8000027c:	fbf70793          	addi	a5,a4,-65
80000280:	0a070063          	beqz	a4,80000320 <render+0x168>
80000284:	0003a703          	lw	a4,0(t2)
80000288:	0000c697          	auipc	a3,0xc
8000028c:	21c68693          	addi	a3,a3,540 # 8000c4a4 <x.2>
80000290:	0000c097          	auipc	ra,0xc
80000294:	41408093          	addi	ra,ra,1044 # 8000c6a4 <y.1>
80000298:	00271713          	slli	a4,a4,0x2
8000029c:	00442303          	lw	t1,4(s0)
800002a0:	00e682b3          	add	t0,a3,a4
800002a4:	00e08733          	add	a4,ra,a4
800002a8:	0003a083          	lw	ra,0(t2)
800002ac:	00842603          	lw	a2,8(s0)
800002b0:	00c42683          	lw	a3,12(s0)
800002b4:	0062a023          	sw	t1,0(t0)
800002b8:	00c42283          	lw	t0,12(s0)
800002bc:	00108093          	addi	ra,ra,1
800002c0:	00d036b3          	snez	a3,a3
800002c4:	00c72023          	sw	a2,0(a4)
800002c8:	0013a023          	sw	ra,0(t2)
800002cc:	40d006b3          	neg	a3,a3
800002d0:	00000713          	li	a4,0
800002d4:	00504663          	bgtz	t0,800002e0 <render+0x128>
800002d8:	01a6f713          	andi	a4,a3,26
800002dc:	01a70713          	addi	a4,a4,26
800002e0:	00e787b3          	add	a5,a5,a4
800002e4:	00979793          	slli	a5,a5,0x9
800002e8:	00002717          	auipc	a4,0x2
800002ec:	5bc70713          	addi	a4,a4,1468 # 800028a4 <texture>
800002f0:	00e787b3          	add	a5,a5,a4
800002f4:	00f12823          	sw	a5,16(sp)
800002f8:	00800793          	li	a5,8
800002fc:	00f12a23          	sw	a5,20(sp)
80000300:	01000793          	li	a5,16
80000304:	00612423          	sw	t1,8(sp)
80000308:	00c12623          	sw	a2,12(sp)
8000030c:	00f12c23          	sw	a5,24(sp)
80000310:	00010e23          	sb	zero,28(sp)
80000314:	6c0000ef          	jal	ra,800009d4 <ioe_write>
80000318:	0000c397          	auipc	t2,0xc
8000031c:	59438393          	addi	t2,t2,1428 # 8000c8ac <n.0>
80000320:	01440413          	addi	s0,s0,20
80000324:	00002797          	auipc	a5,0x2
80000328:	58078793          	addi	a5,a5,1408 # 800028a4 <texture>
8000032c:	f4f412e3          	bne	s0,a5,80000270 <render+0xb8>
80000330:	00100793          	li	a5,1
80000334:	00048593          	mv	a1,s1
80000338:	00b00513          	li	a0,11
8000033c:	00012423          	sw	zero,8(sp)
80000340:	00012623          	sw	zero,12(sp)
80000344:	00012823          	sw	zero,16(sp)
80000348:	00012a23          	sw	zero,20(sp)
8000034c:	00012c23          	sw	zero,24(sp)
80000350:	00f10e23          	sb	a5,28(sp)
80000354:	02800413          	li	s0,40
80000358:	67c000ef          	jal	ra,800009d4 <ioe_write>
8000035c:	fff40413          	addi	s0,s0,-1
80000360:	00800513          	li	a0,8
80000364:	52c000ef          	jal	ra,80000890 <putch>
80000368:	fe041ae3          	bnez	s0,8000035c <render+0x1a4>
8000036c:	02412403          	lw	s0,36(sp)
80000370:	02812083          	lw	ra,40(sp)
80000374:	02012483          	lw	s1,32(sp)
80000378:	0000c697          	auipc	a3,0xc
8000037c:	5406a683          	lw	a3,1344(a3) # 8000c8b8 <wrong>
80000380:	0000c617          	auipc	a2,0xc
80000384:	52862603          	lw	a2,1320(a2) # 8000c8a8 <miss>
80000388:	0000c597          	auipc	a1,0xc
8000038c:	51c5a583          	lw	a1,1308(a1) # 8000c8a4 <hit>
80000390:	00001517          	auipc	a0,0x1
80000394:	20050513          	addi	a0,a0,512 # 80001590 <_etext>
80000398:	02c10113          	addi	sp,sp,44
8000039c:	4a90006f          	j	80001044 <printf>
800003a0:	00810493          	addi	s1,sp,8
800003a4:	ebdff06f          	j	80000260 <render+0xa8>

800003a8 <check_hit>:
800003a8:	00002317          	auipc	t1,0x2
800003ac:	afc30313          	addi	t1,t1,-1284 # 80001ea4 <chars>
800003b0:	00030793          	mv	a5,t1
800003b4:	00000713          	li	a4,0
800003b8:	fff00593          	li	a1,-1
800003bc:	fff00293          	li	t0,-1
800003c0:	08000613          	li	a2,128
800003c4:	0100006f          	j	800003d4 <check_hit+0x2c>
800003c8:	00170713          	addi	a4,a4,1
800003cc:	01478793          	addi	a5,a5,20
800003d0:	04c70263          	beq	a4,a2,80000414 <check_hit+0x6c>
800003d4:	0007c683          	lbu	a3,0(a5)
800003d8:	fea698e3          	bne	a3,a0,800003c8 <check_hit+0x20>
800003dc:	00c7a683          	lw	a3,12(a5)
800003e0:	fed054e3          	blez	a3,800003c8 <check_hit+0x20>
800003e4:	00259693          	slli	a3,a1,0x2
800003e8:	00b686b3          	add	a3,a3,a1
800003ec:	00269693          	slli	a3,a3,0x2
800003f0:	00d306b3          	add	a3,t1,a3
800003f4:	00558863          	beq	a1,t0,80000404 <check_hit+0x5c>
800003f8:	0087a383          	lw	t2,8(a5)
800003fc:	0086a683          	lw	a3,8(a3)
80000400:	fc76d4e3          	bge	a3,t2,800003c8 <check_hit+0x20>
80000404:	00070593          	mv	a1,a4
80000408:	00170713          	addi	a4,a4,1
8000040c:	01478793          	addi	a5,a5,20
80000410:	fcc712e3          	bne	a4,a2,800003d4 <check_hit+0x2c>
80000414:	fff00793          	li	a5,-1
80000418:	04f58463          	beq	a1,a5,80000460 <check_hit+0xb8>
8000041c:	0000c717          	auipc	a4,0xc
80000420:	49472703          	lw	a4,1172(a4) # 8000c8b0 <screen_h>
80000424:	00f00793          	li	a5,15
80000428:	40e787b3          	sub	a5,a5,a4
8000042c:	01e00713          	li	a4,30
80000430:	02e7c7b3          	div	a5,a5,a4
80000434:	0000c617          	auipc	a2,0xc
80000438:	47060613          	addi	a2,a2,1136 # 8000c8a4 <hit>
8000043c:	00062683          	lw	a3,0(a2)
80000440:	00259713          	slli	a4,a1,0x2
80000444:	00b70733          	add	a4,a4,a1
80000448:	00271713          	slli	a4,a4,0x2
8000044c:	00168693          	addi	a3,a3,1
80000450:	00e30333          	add	t1,t1,a4
80000454:	00d62023          	sw	a3,0(a2)
80000458:	00f32623          	sw	a5,12(t1)
8000045c:	00008067          	ret
80000460:	0000c717          	auipc	a4,0xc
80000464:	45870713          	addi	a4,a4,1112 # 8000c8b8 <wrong>
80000468:	00072783          	lw	a5,0(a4)
8000046c:	00178793          	addi	a5,a5,1
80000470:	00f72023          	sw	a5,0(a4)
80000474:	00008067          	ret

80000478 <video_init>:
80000478:	fc010113          	addi	sp,sp,-64
8000047c:	02112e23          	sw	ra,60(sp)
80000480:	02812c23          	sw	s0,56(sp)
80000484:	02912a23          	sw	s1,52(sp)
80000488:	04010413          	addi	s0,sp,64
8000048c:	fdc40593          	addi	a1,s0,-36
80000490:	00900513          	li	a0,9
80000494:	524000ef          	jal	ra,800009b8 <ioe_read>
80000498:	fe042783          	lw	a5,-32(s0)
8000049c:	fdc40593          	addi	a1,s0,-36
800004a0:	0000c497          	auipc	s1,0xc
800004a4:	41448493          	addi	s1,s1,1044 # 8000c8b4 <screen_w>
800004a8:	00900513          	li	a0,9
800004ac:	00f4a023          	sw	a5,0(s1)
800004b0:	508000ef          	jal	ra,800009b8 <ioe_read>
800004b4:	fe442583          	lw	a1,-28(s0)
800004b8:	0000c617          	auipc	a2,0xc
800004bc:	3f860613          	addi	a2,a2,1016 # 8000c8b0 <screen_h>
800004c0:	002a1737          	lui	a4,0x2a1
800004c4:	00b62023          	sw	a1,0(a2)
800004c8:	00001797          	auipc	a5,0x1
800004cc:	7dc78793          	addi	a5,a5,2012 # 80001ca4 <blank>
800004d0:	00002697          	auipc	a3,0x2
800004d4:	9d468693          	addi	a3,a3,-1580 # 80001ea4 <chars>
800004d8:	a2970713          	addi	a4,a4,-1495 # 2a0a29 <_entry_offset+0x2a0a29>
800004dc:	00e7a023          	sw	a4,0(a5)
800004e0:	00478793          	addi	a5,a5,4
800004e4:	fed79ce3          	bne	a5,a3,800004dc <video_init+0x64>
800004e8:	0004a703          	lw	a4,0(s1)
800004ec:	002a1537          	lui	a0,0x2a1
800004f0:	00000693          	li	a3,0
800004f4:	00271793          	slli	a5,a4,0x2
800004f8:	40f10133          	sub	sp,sp,a5
800004fc:	00010313          	mv	t1,sp
80000500:	00030793          	mv	a5,t1
80000504:	a2950513          	addi	a0,a0,-1495 # 2a0a29 <_entry_offset+0x2a0a29>
80000508:	00e05a63          	blez	a4,8000051c <video_init+0xa4>
8000050c:	00a7a023          	sw	a0,0(a5)
80000510:	00168693          	addi	a3,a3,1
80000514:	00478793          	addi	a5,a5,4
80000518:	fed71ae3          	bne	a4,a3,8000050c <video_init+0x94>
8000051c:	00000793          	li	a5,0
80000520:	00b04863          	bgtz	a1,80000530 <video_init+0xb8>
80000524:	0540006f          	j	80000578 <video_init+0x100>
80000528:	0004a703          	lw	a4,0(s1)
8000052c:	fd442303          	lw	t1,-44(s0)
80000530:	fef42023          	sw	a5,-32(s0)
80000534:	fcf42c23          	sw	a5,-40(s0)
80000538:	fdc40593          	addi	a1,s0,-36
8000053c:	00100793          	li	a5,1
80000540:	00b00513          	li	a0,11
80000544:	fee42423          	sw	a4,-24(s0)
80000548:	fef42623          	sw	a5,-20(s0)
8000054c:	fc042e23          	sw	zero,-36(s0)
80000550:	fe642223          	sw	t1,-28(s0)
80000554:	fc642a23          	sw	t1,-44(s0)
80000558:	fe040823          	sb	zero,-16(s0)
8000055c:	478000ef          	jal	ra,800009d4 <ioe_write>
80000560:	fd842783          	lw	a5,-40(s0)
80000564:	0000c617          	auipc	a2,0xc
80000568:	34c60613          	addi	a2,a2,844 # 8000c8b0 <screen_h>
8000056c:	00062703          	lw	a4,0(a2)
80000570:	00178793          	addi	a5,a5,1
80000574:	fae7cae3          	blt	a5,a4,80000528 <video_init+0xb0>
80000578:	00001797          	auipc	a5,0x1
8000057c:	38878793          	addi	a5,a5,904 # 80001900 <font>
80000580:	fcf42423          	sw	a5,-56(s0)
80000584:	00002797          	auipc	a5,0x2
80000588:	32078793          	addi	a5,a5,800 # 800028a4 <texture>
8000058c:	fcf42223          	sw	a5,-60(s0)
80000590:	002a17b7          	lui	a5,0x2a1
80000594:	a2978493          	addi	s1,a5,-1495 # 2a0a29 <_entry_offset+0x2a0a29>
80000598:	00eef7b7          	lui	a5,0xeef
8000059c:	eee78793          	addi	a5,a5,-274 # eeeeee <_entry_offset+0xeeeeee>
800005a0:	fcf42c23          	sw	a5,-40(s0)
800005a4:	000077b7          	lui	a5,0x7
800005a8:	fc042023          	sw	zero,-64(s0)
800005ac:	80078393          	addi	t2,a5,-2048 # 6800 <_entry_offset+0x6800>
800005b0:	fc442783          	lw	a5,-60(s0)
800005b4:	fc042623          	sw	zero,-52(s0)
800005b8:	fcf42a23          	sw	a5,-44(s0)
800005bc:	fc842783          	lw	a5,-56(s0)
800005c0:	fcf42823          	sw	a5,-48(s0)
800005c4:	fd042783          	lw	a5,-48(s0)
800005c8:	0000d2b7          	lui	t0,0xd
800005cc:	00700713          	li	a4,7
800005d0:	0007c303          	lbu	t1,0(a5)
800005d4:	c3328293          	addi	t0,t0,-973 # cc33 <_entry_offset+0xcc33>
800005d8:	fd442783          	lw	a5,-44(s0)
800005dc:	03c0006f          	j	80000618 <video_init+0x1a0>
800005e0:	fd842683          	lw	a3,-40(s0)
800005e4:	00ff0637          	lui	a2,0xff0
800005e8:	00028513          	mv	a0,t0
800005ec:	03360613          	addi	a2,a2,51 # ff0033 <_entry_offset+0xff0033>
800005f0:	00d7a023          	sw	a3,0(a5)
800005f4:	007785b3          	add	a1,a5,t2
800005f8:	000036b7          	lui	a3,0x3
800005fc:	00d786b3          	add	a3,a5,a3
80000600:	00a5a023          	sw	a0,0(a1)
80000604:	40c6a023          	sw	a2,1024(a3) # 3400 <_entry_offset+0x3400>
80000608:	fff70713          	addi	a4,a4,-1
8000060c:	fff00693          	li	a3,-1
80000610:	00478793          	addi	a5,a5,4
80000614:	02d70063          	beq	a4,a3,80000634 <video_init+0x1bc>
80000618:	40e356b3          	sra	a3,t1,a4
8000061c:	0016f693          	andi	a3,a3,1
80000620:	fc0690e3          	bnez	a3,800005e0 <video_init+0x168>
80000624:	00048693          	mv	a3,s1
80000628:	00048513          	mv	a0,s1
8000062c:	00048613          	mv	a2,s1
80000630:	fc1ff06f          	j	800005f0 <video_init+0x178>
80000634:	fd042683          	lw	a3,-48(s0)
80000638:	fcc42783          	lw	a5,-52(s0)
8000063c:	00168693          	addi	a3,a3,1
80000640:	fcd42823          	sw	a3,-48(s0)
80000644:	fd442683          	lw	a3,-44(s0)
80000648:	00878713          	addi	a4,a5,8
8000064c:	fce42623          	sw	a4,-52(s0)
80000650:	02068693          	addi	a3,a3,32
80000654:	08000793          	li	a5,128
80000658:	fcd42a23          	sw	a3,-44(s0)
8000065c:	f6f714e3          	bne	a4,a5,800005c4 <video_init+0x14c>
80000660:	fc842683          	lw	a3,-56(s0)
80000664:	fc042783          	lw	a5,-64(s0)
80000668:	01068693          	addi	a3,a3,16
8000066c:	fcd42423          	sw	a3,-56(s0)
80000670:	fc442683          	lw	a3,-60(s0)
80000674:	08078713          	addi	a4,a5,128
80000678:	000017b7          	lui	a5,0x1
8000067c:	20068693          	addi	a3,a3,512
80000680:	fce42023          	sw	a4,-64(s0)
80000684:	d0078793          	addi	a5,a5,-768 # d00 <_entry_offset+0xd00>
80000688:	fcd42223          	sw	a3,-60(s0)
8000068c:	f2f712e3          	bne	a4,a5,800005b0 <video_init+0x138>
80000690:	fc040113          	addi	sp,s0,-64
80000694:	03c12083          	lw	ra,60(sp)
80000698:	03812403          	lw	s0,56(sp)
8000069c:	03412483          	lw	s1,52(sp)
800006a0:	04010113          	addi	sp,sp,64
800006a4:	00008067          	ret

800006a8 <main>:
800006a8:	fd010113          	addi	sp,sp,-48
800006ac:	01f10793          	addi	a5,sp,31
800006b0:	ff87f793          	andi	a5,a5,-8
800006b4:	00f12023          	sw	a5,0(sp)
800006b8:	02112623          	sw	ra,44(sp)
800006bc:	02812423          	sw	s0,40(sp)
800006c0:	02912223          	sw	s1,36(sp)
800006c4:	298000ef          	jal	ra,8000095c <ioe_init>
800006c8:	db1ff0ef          	jal	ra,80000478 <video_init>
800006cc:	01010593          	addi	a1,sp,16
800006d0:	00400513          	li	a0,4
800006d4:	2e4000ef          	jal	ra,800009b8 <ioe_read>
800006d8:	01014783          	lbu	a5,16(sp)
800006dc:	06079063          	bnez	a5,8000073c <main+0x94>
800006e0:	00001417          	auipc	s0,0x1
800006e4:	ed040413          	addi	s0,s0,-304 # 800015b0 <_etext+0x20>
800006e8:	04100513          	li	a0,65
800006ec:	00140413          	addi	s0,s0,1
800006f0:	1a0000ef          	jal	ra,80000890 <putch>
800006f4:	00044503          	lbu	a0,0(s0)
800006f8:	fe051ae3          	bnez	a0,800006ec <main+0x44>
800006fc:	00001417          	auipc	s0,0x1
80000700:	ec040413          	addi	s0,s0,-320 # 800015bc <_etext+0x2c>
80000704:	07200513          	li	a0,114
80000708:	00140413          	addi	s0,s0,1
8000070c:	184000ef          	jal	ra,80000890 <putch>
80000710:	00044503          	lbu	a0,0(s0)
80000714:	fe051ae3          	bnez	a0,80000708 <main+0x60>
80000718:	00001417          	auipc	s0,0x1
8000071c:	eb440413          	addi	s0,s0,-332 # 800015cc <_etext+0x3c>
80000720:	02000513          	li	a0,32
80000724:	00140413          	addi	s0,s0,1
80000728:	168000ef          	jal	ra,80000890 <putch>
8000072c:	00044503          	lbu	a0,0(s0)
80000730:	fe051ae3          	bnez	a0,80000724 <main+0x7c>
80000734:	00100513          	li	a0,1
80000738:	164000ef          	jal	ra,8000089c <halt>
8000073c:	01010593          	addi	a1,sp,16
80000740:	00700513          	li	a0,7
80000744:	274000ef          	jal	ra,800009b8 <ioe_read>
80000748:	01014783          	lbu	a5,16(sp)
8000074c:	04079e63          	bnez	a5,800007a8 <main+0x100>
80000750:	00001417          	auipc	s0,0x1
80000754:	e6040413          	addi	s0,s0,-416 # 800015b0 <_etext+0x20>
80000758:	04100513          	li	a0,65
8000075c:	00140413          	addi	s0,s0,1
80000760:	130000ef          	jal	ra,80000890 <putch>
80000764:	00044503          	lbu	a0,0(s0)
80000768:	fe051ae3          	bnez	a0,8000075c <main+0xb4>
8000076c:	00001417          	auipc	s0,0x1
80000770:	eb440413          	addi	s0,s0,-332 # 80001620 <_etext+0x90>
80000774:	07200513          	li	a0,114
80000778:	00140413          	addi	s0,s0,1
8000077c:	114000ef          	jal	ra,80000890 <putch>
80000780:	00044503          	lbu	a0,0(s0)
80000784:	fe051ae3          	bnez	a0,80000778 <main+0xd0>
80000788:	00001417          	auipc	s0,0x1
8000078c:	eac40413          	addi	s0,s0,-340 # 80001634 <_etext+0xa4>
80000790:	02000513          	li	a0,32
80000794:	00140413          	addi	s0,s0,1
80000798:	0f8000ef          	jal	ra,80000890 <putch>
8000079c:	00044503          	lbu	a0,0(s0)
800007a0:	fe051ae3          	bnez	a0,80000794 <main+0xec>
800007a4:	f91ff06f          	j	80000734 <main+0x8c>
800007a8:	00001517          	auipc	a0,0x1
800007ac:	ee050513          	addi	a0,a0,-288 # 80001688 <_etext+0xf8>
800007b0:	095000ef          	jal	ra,80001044 <printf>
800007b4:	00012403          	lw	s0,0(sp)
800007b8:	00600513          	li	a0,6
800007bc:	00040593          	mv	a1,s0
800007c0:	1f8000ef          	jal	ra,800009b8 <ioe_read>
800007c4:	00042703          	lw	a4,0(s0)
800007c8:	00442783          	lw	a5,4(s0)
800007cc:	00012623          	sw	zero,12(sp)
800007d0:	00e12223          	sw	a4,4(sp)
800007d4:	00f12423          	sw	a5,8(sp)
800007d8:	00000413          	li	s0,0
800007dc:	00012483          	lw	s1,0(sp)
800007e0:	00600513          	li	a0,6
800007e4:	00048593          	mv	a1,s1
800007e8:	1d0000ef          	jal	ra,800009b8 <ioe_read>
800007ec:	0004a783          	lw	a5,0(s1)
800007f0:	00412703          	lw	a4,4(sp)
800007f4:	0044a583          	lw	a1,4(s1)
800007f8:	00008637          	lui	a2,0x8
800007fc:	40e78533          	sub	a0,a5,a4
80000800:	00812703          	lw	a4,8(sp)
80000804:	00a7b7b3          	sltu	a5,a5,a0
80000808:	23560613          	addi	a2,a2,565 # 8235 <_entry_offset+0x8235>
8000080c:	40e585b3          	sub	a1,a1,a4
80000810:	00000693          	li	a3,0
80000814:	40f585b3          	sub	a1,a1,a5
80000818:	718000ef          	jal	ra,80000f30 <__udivdi3>
8000081c:	00050493          	mv	s1,a0
80000820:	00a45a63          	bge	s0,a0,80000834 <main+0x18c>
80000824:	00040513          	mv	a0,s0
80000828:	00140413          	addi	s0,s0,1
8000082c:	8b9ff0ef          	jal	ra,800000e4 <game_logic_update>
80000830:	fe849ae3          	bne	s1,s0,80000824 <main+0x17c>
80000834:	01010593          	addi	a1,sp,16
80000838:	00800513          	li	a0,8
8000083c:	17c000ef          	jal	ra,800009b8 <ioe_read>
80000840:	01412783          	lw	a5,20(sp)
80000844:	01014703          	lbu	a4,16(sp)
80000848:	02078663          	beqz	a5,80000874 <main+0x1cc>
8000084c:	fe0704e3          	beqz	a4,80000834 <main+0x18c>
80000850:	00100713          	li	a4,1
80000854:	02e78a63          	beq	a5,a4,80000888 <main+0x1e0>
80000858:	00001717          	auipc	a4,0x1
8000085c:	fa870713          	addi	a4,a4,-88 # 80001800 <lut>
80000860:	00f707b3          	add	a5,a4,a5
80000864:	0007c503          	lbu	a0,0(a5)
80000868:	fc0506e3          	beqz	a0,80000834 <main+0x18c>
8000086c:	b3dff0ef          	jal	ra,800003a8 <check_hit>
80000870:	fc5ff06f          	j	80000834 <main+0x18c>
80000874:	00c12783          	lw	a5,12(sp)
80000878:	f687d2e3          	bge	a5,s0,800007dc <main+0x134>
8000087c:	93dff0ef          	jal	ra,800001b8 <render>
80000880:	00812623          	sw	s0,12(sp)
80000884:	f59ff06f          	j	800007dc <main+0x134>
80000888:	00000513          	li	a0,0
8000088c:	010000ef          	jal	ra,8000089c <halt>

80000890 <putch>:
80000890:	a00007b7          	lui	a5,0xa0000
80000894:	3ea78c23          	sb	a0,1016(a5) # a00003f8 <_end+0x1ffeb3f8>
80000898:	00008067          	ret

8000089c <halt>:
8000089c:	00050513          	mv	a0,a0
800008a0:	00100073          	ebreak
800008a4:	0000006f          	j	800008a4 <halt+0x8>

800008a8 <_trm_init>:
800008a8:	ff410113          	addi	sp,sp,-12
800008ac:	00001517          	auipc	a0,0x1
800008b0:	df050513          	addi	a0,a0,-528 # 8000169c <mainargs>
800008b4:	00112423          	sw	ra,8(sp)
800008b8:	df1ff0ef          	jal	ra,800006a8 <main>
800008bc:	00050513          	mv	a0,a0
800008c0:	00100073          	ebreak
800008c4:	0000006f          	j	800008c4 <_trm_init+0x1c>

800008c8 <__am_timer_config>:
800008c8:	00100793          	li	a5,1
800008cc:	00f50023          	sb	a5,0(a0)
800008d0:	00f500a3          	sb	a5,1(a0)
800008d4:	00008067          	ret

800008d8 <__am_input_config>:
800008d8:	00100793          	li	a5,1
800008dc:	00f50023          	sb	a5,0(a0)
800008e0:	00008067          	ret

800008e4 <__am_uart_config>:
800008e4:	00050023          	sb	zero,0(a0)
800008e8:	00008067          	ret

800008ec <__am_net_config>:
800008ec:	00050023          	sb	zero,0(a0)
800008f0:	00008067          	ret

800008f4 <fail>:
800008f4:	ff410113          	addi	sp,sp,-12
800008f8:	00812223          	sw	s0,4(sp)
800008fc:	00112423          	sw	ra,8(sp)
80000900:	00001417          	auipc	s0,0x1
80000904:	cb040413          	addi	s0,s0,-848 # 800015b0 <_etext+0x20>
80000908:	04100513          	li	a0,65
8000090c:	00140413          	addi	s0,s0,1
80000910:	f81ff0ef          	jal	ra,80000890 <putch>
80000914:	00044503          	lbu	a0,0(s0)
80000918:	fe051ae3          	bnez	a0,8000090c <fail+0x18>
8000091c:	00001417          	auipc	s0,0x1
80000920:	dc040413          	addi	s0,s0,-576 # 800016dc <mainargs+0x40>
80000924:	06100513          	li	a0,97
80000928:	00140413          	addi	s0,s0,1
8000092c:	f65ff0ef          	jal	ra,80000890 <putch>
80000930:	00044503          	lbu	a0,0(s0)
80000934:	fe051ae3          	bnez	a0,80000928 <fail+0x34>
80000938:	00001417          	auipc	s0,0x1
8000093c:	dc040413          	addi	s0,s0,-576 # 800016f8 <mainargs+0x5c>
80000940:	02000513          	li	a0,32
80000944:	00140413          	addi	s0,s0,1
80000948:	f49ff0ef          	jal	ra,80000890 <putch>
8000094c:	00044503          	lbu	a0,0(s0)
80000950:	fe051ae3          	bnez	a0,80000944 <fail+0x50>
80000954:	00100513          	li	a0,1
80000958:	f45ff0ef          	jal	ra,8000089c <halt>

8000095c <ioe_init>:
8000095c:	ff410113          	addi	sp,sp,-12
80000960:	00112423          	sw	ra,8(sp)
80000964:	00001797          	auipc	a5,0x1
80000968:	13c78793          	addi	a5,a5,316 # 80001aa0 <lut>
8000096c:	00001697          	auipc	a3,0x1
80000970:	33468693          	addi	a3,a3,820 # 80001ca0 <next>
80000974:	00000617          	auipc	a2,0x0
80000978:	f8060613          	addi	a2,a2,-128 # 800008f4 <fail>
8000097c:	00c0006f          	j	80000988 <ioe_init+0x2c>
80000980:	00478793          	addi	a5,a5,4
80000984:	00d78c63          	beq	a5,a3,8000099c <ioe_init+0x40>
80000988:	0007a703          	lw	a4,0(a5)
8000098c:	fe071ae3          	bnez	a4,80000980 <ioe_init+0x24>
80000990:	00c7a023          	sw	a2,0(a5)
80000994:	00478793          	addi	a5,a5,4
80000998:	fed798e3          	bne	a5,a3,80000988 <ioe_init+0x2c>
8000099c:	0b4000ef          	jal	ra,80000a50 <__am_gpu_init>
800009a0:	050000ef          	jal	ra,800009f0 <__am_timer_init>
800009a4:	168000ef          	jal	ra,80000b0c <__am_audio_init>
800009a8:	00812083          	lw	ra,8(sp)
800009ac:	00100513          	li	a0,1
800009b0:	00c10113          	addi	sp,sp,12
800009b4:	00008067          	ret

800009b8 <ioe_read>:
800009b8:	00251513          	slli	a0,a0,0x2
800009bc:	00001797          	auipc	a5,0x1
800009c0:	0e478793          	addi	a5,a5,228 # 80001aa0 <lut>
800009c4:	00a787b3          	add	a5,a5,a0
800009c8:	0007a783          	lw	a5,0(a5)
800009cc:	00058513          	mv	a0,a1
800009d0:	00078067          	jr	a5

800009d4 <ioe_write>:
800009d4:	00251513          	slli	a0,a0,0x2
800009d8:	00001797          	auipc	a5,0x1
800009dc:	0c878793          	addi	a5,a5,200 # 80001aa0 <lut>
800009e0:	00a787b3          	add	a5,a5,a0
800009e4:	0007a783          	lw	a5,0(a5)
800009e8:	00058513          	mv	a0,a1
800009ec:	00078067          	jr	a5

800009f0 <__am_timer_init>:
800009f0:	00008067          	ret

800009f4 <__am_timer_uptime>:
800009f4:	a00007b7          	lui	a5,0xa0000
800009f8:	04c7a703          	lw	a4,76(a5) # a000004c <_end+0x1ffeb04c>
800009fc:	0487a783          	lw	a5,72(a5)
80000a00:	00e52223          	sw	a4,4(a0)
80000a04:	00f52023          	sw	a5,0(a0)
80000a08:	00008067          	ret

80000a0c <__am_timer_rtc>:
80000a0c:	7e900793          	li	a5,2025
80000a10:	00052a23          	sw	zero,20(a0)
80000a14:	00052823          	sw	zero,16(a0)
80000a18:	00052623          	sw	zero,12(a0)
80000a1c:	00052423          	sw	zero,8(a0)
80000a20:	00052223          	sw	zero,4(a0)
80000a24:	00f52023          	sw	a5,0(a0)
80000a28:	00008067          	ret

80000a2c <__am_input_keybrd>:
80000a2c:	a00007b7          	lui	a5,0xa0000
80000a30:	0607a783          	lw	a5,96(a5) # a0000060 <_end+0x1ffeb060>
80000a34:	00f7d713          	srli	a4,a5,0xf
80000a38:	01179793          	slli	a5,a5,0x11
80000a3c:	00177713          	andi	a4,a4,1
80000a40:	0117d793          	srli	a5,a5,0x11
80000a44:	00e50023          	sb	a4,0(a0)
80000a48:	00f52223          	sw	a5,4(a0)
80000a4c:	00008067          	ret

80000a50 <__am_gpu_init>:
80000a50:	00008067          	ret

80000a54 <__am_gpu_config>:
80000a54:	a00007b7          	lui	a5,0xa0000
80000a58:	1027d703          	lhu	a4,258(a5) # a0000102 <_end+0x1ffeb102>
80000a5c:	1007d783          	lhu	a5,256(a5)
80000a60:	00100693          	li	a3,1
80000a64:	00d51023          	sh	a3,0(a0)
80000a68:	00052623          	sw	zero,12(a0)
80000a6c:	00e52223          	sw	a4,4(a0)
80000a70:	00f52423          	sw	a5,8(a0)
80000a74:	00008067          	ret

80000a78 <__am_gpu_fbdraw>:
80000a78:	01454783          	lbu	a5,20(a0)
80000a7c:	00078863          	beqz	a5,80000a8c <__am_gpu_fbdraw+0x14>
80000a80:	a00007b7          	lui	a5,0xa0000
80000a84:	00100713          	li	a4,1
80000a88:	10e7a223          	sw	a4,260(a5) # a0000104 <_end+0x1ffeb104>
80000a8c:	00452703          	lw	a4,4(a0)
80000a90:	19000593          	li	a1,400
80000a94:	00052783          	lw	a5,0(a0)
80000a98:	02e585b3          	mul	a1,a1,a4
80000a9c:	01052283          	lw	t0,16(a0)
80000aa0:	00852683          	lw	a3,8(a0)
80000aa4:	00f585b3          	add	a1,a1,a5
80000aa8:	284007b7          	lui	a5,0x28400
80000aac:	00f585b3          	add	a1,a1,a5
80000ab0:	00259593          	slli	a1,a1,0x2
80000ab4:	04505463          	blez	t0,80000afc <__am_gpu_fbdraw+0x84>
80000ab8:	00c52603          	lw	a2,12(a0)
80000abc:	00000313          	li	t1,0
80000ac0:	00058713          	mv	a4,a1
80000ac4:	00000793          	li	a5,0
80000ac8:	02c05263          	blez	a2,80000aec <__am_gpu_fbdraw+0x74>
80000acc:	0006a603          	lw	a2,0(a3)
80000ad0:	00178793          	addi	a5,a5,1 # 28400001 <_entry_offset+0x28400001>
80000ad4:	00468693          	addi	a3,a3,4
80000ad8:	00c72023          	sw	a2,0(a4)
80000adc:	00c52603          	lw	a2,12(a0)
80000ae0:	00470713          	addi	a4,a4,4
80000ae4:	fec7c4e3          	blt	a5,a2,80000acc <__am_gpu_fbdraw+0x54>
80000ae8:	01052283          	lw	t0,16(a0)
80000aec:	00130313          	addi	t1,t1,1
80000af0:	64058593          	addi	a1,a1,1600
80000af4:	fc5346e3          	blt	t1,t0,80000ac0 <__am_gpu_fbdraw+0x48>
80000af8:	00008067          	ret
80000afc:	00008067          	ret

80000b00 <__am_gpu_status>:
80000b00:	00100793          	li	a5,1
80000b04:	00f50023          	sb	a5,0(a0)
80000b08:	00008067          	ret

80000b0c <__am_audio_init>:
80000b0c:	00008067          	ret

80000b10 <__am_audio_config>:
80000b10:	00050023          	sb	zero,0(a0)
80000b14:	00008067          	ret

80000b18 <__am_audio_ctrl>:
80000b18:	00008067          	ret

80000b1c <__am_audio_status>:
80000b1c:	00052023          	sw	zero,0(a0)
80000b20:	00008067          	ret

80000b24 <__am_audio_play>:
80000b24:	00008067          	ret

80000b28 <__am_disk_config>:
80000b28:	00050023          	sb	zero,0(a0)
80000b2c:	00008067          	ret

80000b30 <__am_disk_status>:
80000b30:	00008067          	ret

80000b34 <__am_disk_blkio>:
80000b34:	00008067          	ret

80000b38 <rand>:
80000b38:	00001697          	auipc	a3,0x1
80000b3c:	16868693          	addi	a3,a3,360 # 80001ca0 <next>
80000b40:	0006a783          	lw	a5,0(a3)
80000b44:	41c65737          	lui	a4,0x41c65
80000b48:	e6d70713          	addi	a4,a4,-403 # 41c64e6d <_entry_offset+0x41c64e6d>
80000b4c:	02e787b3          	mul	a5,a5,a4
80000b50:	00003737          	lui	a4,0x3
80000b54:	03970713          	addi	a4,a4,57 # 3039 <_entry_offset+0x3039>
80000b58:	00e787b3          	add	a5,a5,a4
80000b5c:	00179513          	slli	a0,a5,0x1
80000b60:	00f6a023          	sw	a5,0(a3)
80000b64:	01155513          	srli	a0,a0,0x11
80000b68:	00008067          	ret

80000b6c <__udivmoddi4>:
80000b6c:	fe010113          	addi	sp,sp,-32
80000b70:	00912a23          	sw	s1,20(sp)
80000b74:	00112e23          	sw	ra,28(sp)
80000b78:	00812c23          	sw	s0,24(sp)
80000b7c:	00e12223          	sw	a4,4(sp)
80000b80:	00050313          	mv	t1,a0
80000b84:	00060493          	mv	s1,a2
80000b88:	02059a63          	bnez	a1,80000bbc <__udivmoddi4+0x50>
80000b8c:	1e069663          	bnez	a3,80000d78 <__udivmoddi4+0x20c>
80000b90:	00070863          	beqz	a4,80000ba0 <__udivmoddi4+0x34>
80000b94:	02c577b3          	remu	a5,a0,a2
80000b98:	00072223          	sw	zero,4(a4)
80000b9c:	00f72023          	sw	a5,0(a4)
80000ba0:	02935533          	divu	a0,t1,s1
80000ba4:	00000593          	li	a1,0
80000ba8:	01c12083          	lw	ra,28(sp)
80000bac:	01812403          	lw	s0,24(sp)
80000bb0:	01412483          	lw	s1,20(sp)
80000bb4:	02010113          	addi	sp,sp,32
80000bb8:	00008067          	ret
80000bbc:	08061263          	bnez	a2,80000c40 <__udivmoddi4+0xd4>
80000bc0:	24068463          	beqz	a3,80000e08 <__udivmoddi4+0x29c>
80000bc4:	2c050c63          	beqz	a0,80000e9c <__udivmoddi4+0x330>
80000bc8:	fff68793          	addi	a5,a3,-1
80000bcc:	00d7f633          	and	a2,a5,a3
80000bd0:	30060063          	beqz	a2,80000ed0 <__udivmoddi4+0x364>
80000bd4:	00a12623          	sw	a0,12(sp)
80000bd8:	00068513          	mv	a0,a3
80000bdc:	00b12823          	sw	a1,16(sp)
80000be0:	00b12023          	sw	a1,0(sp)
80000be4:	00d12423          	sw	a3,8(sp)
80000be8:	350000ef          	jal	ra,80000f38 <__clzsi2>
80000bec:	00012703          	lw	a4,0(sp)
80000bf0:	00050413          	mv	s0,a0
80000bf4:	00070513          	mv	a0,a4
80000bf8:	340000ef          	jal	ra,80000f38 <__clzsi2>
80000bfc:	40a40533          	sub	a0,s0,a0
80000c00:	01e00793          	li	a5,30
80000c04:	00012703          	lw	a4,0(sp)
80000c08:	00812683          	lw	a3,8(sp)
80000c0c:	00c12303          	lw	t1,12(sp)
80000c10:	01012583          	lw	a1,16(sp)
80000c14:	1ea7ec63          	bltu	a5,a0,80000e0c <__udivmoddi4+0x2a0>
80000c18:	00150513          	addi	a0,a0,1
80000c1c:	02000393          	li	t2,32
80000c20:	40a383b3          	sub	t2,t2,a0
80000c24:	007715b3          	sll	a1,a4,t2
80000c28:	00a35633          	srl	a2,t1,a0
80000c2c:	00a757b3          	srl	a5,a4,a0
80000c30:	007313b3          	sll	t2,t1,t2
80000c34:	00c5e733          	or	a4,a1,a2
80000c38:	00000413          	li	s0,0
80000c3c:	0780006f          	j	80000cb4 <__udivmoddi4+0x148>
80000c40:	16068263          	beqz	a3,80000da4 <__udivmoddi4+0x238>
80000c44:	00a12423          	sw	a0,8(sp)
80000c48:	00068513          	mv	a0,a3
80000c4c:	00b12623          	sw	a1,12(sp)
80000c50:	00b12023          	sw	a1,0(sp)
80000c54:	00d12823          	sw	a3,16(sp)
80000c58:	2e0000ef          	jal	ra,80000f38 <__clzsi2>
80000c5c:	00012703          	lw	a4,0(sp)
80000c60:	00050413          	mv	s0,a0
80000c64:	00070513          	mv	a0,a4
80000c68:	2d0000ef          	jal	ra,80000f38 <__clzsi2>
80000c6c:	40a40533          	sub	a0,s0,a0
80000c70:	01f00793          	li	a5,31
80000c74:	00812303          	lw	t1,8(sp)
80000c78:	00c12583          	lw	a1,12(sp)
80000c7c:	18a7e863          	bltu	a5,a0,80000e0c <__udivmoddi4+0x2a0>
80000c80:	00150513          	addi	a0,a0,1
80000c84:	02000793          	li	a5,32
80000c88:	00012703          	lw	a4,0(sp)
80000c8c:	01012683          	lw	a3,16(sp)
80000c90:	00030393          	mv	t2,t1
80000c94:	26f50663          	beq	a0,a5,80000f00 <__udivmoddi4+0x394>
80000c98:	40a78633          	sub	a2,a5,a0
80000c9c:	00a355b3          	srl	a1,t1,a0
80000ca0:	00c71333          	sll	t1,a4,a2
80000ca4:	00a757b3          	srl	a5,a4,a0
80000ca8:	00c393b3          	sll	t2,t2,a2
80000cac:	00b36733          	or	a4,t1,a1
80000cb0:	00000413          	li	s0,0
80000cb4:	00068613          	mv	a2,a3
80000cb8:	00012023          	sw	zero,0(sp)
80000cbc:	00078693          	mv	a3,a5
80000cc0:	00060793          	mv	a5,a2
80000cc4:	01f3d593          	srli	a1,t2,0x1f
80000cc8:	00171613          	slli	a2,a4,0x1
80000ccc:	00b66633          	or	a2,a2,a1
80000cd0:	01f75713          	srli	a4,a4,0x1f
80000cd4:	00169693          	slli	a3,a3,0x1
80000cd8:	00e6e6b3          	or	a3,a3,a4
80000cdc:	40c48733          	sub	a4,s1,a2
80000ce0:	00e4b333          	sltu	t1,s1,a4
80000ce4:	40d785b3          	sub	a1,a5,a3
80000ce8:	406585b3          	sub	a1,a1,t1
80000cec:	00173713          	seqz	a4,a4
80000cf0:	40e585b3          	sub	a1,a1,a4
80000cf4:	41f5d313          	srai	t1,a1,0x1f
80000cf8:	00937733          	and	a4,t1,s1
80000cfc:	00f37333          	and	t1,t1,a5
80000d00:	406686b3          	sub	a3,a3,t1
80000d04:	00012303          	lw	t1,0(sp)
80000d08:	40e60733          	sub	a4,a2,a4
80000d0c:	01f5d593          	srli	a1,a1,0x1f
80000d10:	01f45293          	srli	t0,s0,0x1f
80000d14:	00139393          	slli	t2,t2,0x1
80000d18:	00141413          	slli	s0,s0,0x1
80000d1c:	00e63633          	sltu	a2,a2,a4
80000d20:	fff50513          	addi	a0,a0,-1
80000d24:	00b12023          	sw	a1,0(sp)
80000d28:	00646433          	or	s0,s0,t1
80000d2c:	0053e3b3          	or	t2,t2,t0
80000d30:	40c686b3          	sub	a3,a3,a2
80000d34:	f80518e3          	bnez	a0,80000cc4 <__udivmoddi4+0x158>
80000d38:	00068793          	mv	a5,a3
80000d3c:	00012683          	lw	a3,0(sp)
80000d40:	01f45593          	srli	a1,s0,0x1f
80000d44:	00141413          	slli	s0,s0,0x1
80000d48:	00d46533          	or	a0,s0,a3
80000d4c:	00412683          	lw	a3,4(sp)
80000d50:	00139393          	slli	t2,t2,0x1
80000d54:	0075e5b3          	or	a1,a1,t2
80000d58:	e40688e3          	beqz	a3,80000ba8 <__udivmoddi4+0x3c>
80000d5c:	01c12083          	lw	ra,28(sp)
80000d60:	01812403          	lw	s0,24(sp)
80000d64:	00e6a023          	sw	a4,0(a3)
80000d68:	00f6a223          	sw	a5,4(a3)
80000d6c:	01412483          	lw	s1,20(sp)
80000d70:	02010113          	addi	sp,sp,32
80000d74:	00008067          	ret
80000d78:	00412783          	lw	a5,4(sp)
80000d7c:	08078c63          	beqz	a5,80000e14 <__udivmoddi4+0x2a8>
80000d80:	01c12083          	lw	ra,28(sp)
80000d84:	01812403          	lw	s0,24(sp)
80000d88:	00a7a023          	sw	a0,0(a5)
80000d8c:	0007a223          	sw	zero,4(a5)
80000d90:	01412483          	lw	s1,20(sp)
80000d94:	00000513          	li	a0,0
80000d98:	00000593          	li	a1,0
80000d9c:	02010113          	addi	sp,sp,32
80000da0:	00008067          	ret
80000da4:	fff60793          	addi	a5,a2,-1
80000da8:	00c7f633          	and	a2,a5,a2
80000dac:	06061a63          	bnez	a2,80000e20 <__udivmoddi4+0x2b4>
80000db0:	00412703          	lw	a4,4(sp)
80000db4:	00070863          	beqz	a4,80000dc4 <__udivmoddi4+0x258>
80000db8:	00a7f7b3          	and	a5,a5,a0
80000dbc:	00f72023          	sw	a5,0(a4)
80000dc0:	00072223          	sw	zero,4(a4)
80000dc4:	00100793          	li	a5,1
80000dc8:	00030513          	mv	a0,t1
80000dcc:	dcf48ee3          	beq	s1,a5,80000ba8 <__udivmoddi4+0x3c>
80000dd0:	00048513          	mv	a0,s1
80000dd4:	00b12223          	sw	a1,4(sp)
80000dd8:	00612023          	sw	t1,0(sp)
80000ddc:	1f4000ef          	jal	ra,80000fd0 <__ctzsi2>
80000de0:	00412583          	lw	a1,4(sp)
80000de4:	00012303          	lw	t1,0(sp)
80000de8:	02000713          	li	a4,32
80000dec:	40a70733          	sub	a4,a4,a0
80000df0:	00050793          	mv	a5,a0
80000df4:	00e59733          	sll	a4,a1,a4
80000df8:	00a35333          	srl	t1,t1,a0
80000dfc:	00676533          	or	a0,a4,t1
80000e00:	00f5d5b3          	srl	a1,a1,a5
80000e04:	da5ff06f          	j	80000ba8 <__udivmoddi4+0x3c>
80000e08:	00100073          	ebreak
80000e0c:	00412783          	lw	a5,4(sp)
80000e10:	0a079663          	bnez	a5,80000ebc <__udivmoddi4+0x350>
80000e14:	00000513          	li	a0,0
80000e18:	00000593          	li	a1,0
80000e1c:	d8dff06f          	j	80000ba8 <__udivmoddi4+0x3c>
80000e20:	00a12623          	sw	a0,12(sp)
80000e24:	00048513          	mv	a0,s1
80000e28:	00068413          	mv	s0,a3
80000e2c:	00d12823          	sw	a3,16(sp)
80000e30:	00b12023          	sw	a1,0(sp)
80000e34:	104000ef          	jal	ra,80000f38 <__clzsi2>
80000e38:	00012703          	lw	a4,0(sp)
80000e3c:	00050613          	mv	a2,a0
80000e40:	00c12023          	sw	a2,0(sp)
80000e44:	00070513          	mv	a0,a4
80000e48:	00e12423          	sw	a4,8(sp)
80000e4c:	0ec000ef          	jal	ra,80000f38 <__clzsi2>
80000e50:	00012603          	lw	a2,0(sp)
80000e54:	00c12303          	lw	t1,12(sp)
80000e58:	02000593          	li	a1,32
80000e5c:	40a60633          	sub	a2,a2,a0
80000e60:	02160513          	addi	a0,a2,33
80000e64:	00812703          	lw	a4,8(sp)
80000e68:	01012683          	lw	a3,16(sp)
80000e6c:	00030393          	mv	t2,t1
80000e70:	00000793          	li	a5,0
80000e74:	e4b500e3          	beq	a0,a1,80000cb4 <__udivmoddi4+0x148>
80000e78:	01f00313          	li	t1,31
80000e7c:	08a36863          	bltu	t1,a0,80000f0c <__udivmoddi4+0x3a0>
80000e80:	40a585b3          	sub	a1,a1,a0
80000e84:	00a3d633          	srl	a2,t2,a0
80000e88:	00b71333          	sll	t1,a4,a1
80000e8c:	00a757b3          	srl	a5,a4,a0
80000e90:	00b393b3          	sll	t2,t2,a1
80000e94:	00c36733          	or	a4,t1,a2
80000e98:	e1dff06f          	j	80000cb4 <__udivmoddi4+0x148>
80000e9c:	00412703          	lw	a4,4(sp)
80000ea0:	00070863          	beqz	a4,80000eb0 <__udivmoddi4+0x344>
80000ea4:	02d5f7b3          	remu	a5,a1,a3
80000ea8:	00072023          	sw	zero,0(a4)
80000eac:	00f72223          	sw	a5,4(a4)
80000eb0:	02d5d533          	divu	a0,a1,a3
80000eb4:	00000593          	li	a1,0
80000eb8:	cf1ff06f          	j	80000ba8 <__udivmoddi4+0x3c>
80000ebc:	00b7a223          	sw	a1,4(a5)
80000ec0:	0067a023          	sw	t1,0(a5)
80000ec4:	00000513          	li	a0,0
80000ec8:	00000593          	li	a1,0
80000ecc:	cddff06f          	j	80000ba8 <__udivmoddi4+0x3c>
80000ed0:	00412703          	lw	a4,4(sp)
80000ed4:	00070863          	beqz	a4,80000ee4 <__udivmoddi4+0x378>
80000ed8:	00b7f7b3          	and	a5,a5,a1
80000edc:	00a72023          	sw	a0,0(a4)
80000ee0:	00f72223          	sw	a5,4(a4)
80000ee4:	00068513          	mv	a0,a3
80000ee8:	00b12023          	sw	a1,0(sp)
80000eec:	0e4000ef          	jal	ra,80000fd0 <__ctzsi2>
80000ef0:	00012583          	lw	a1,0(sp)
80000ef4:	00a5d533          	srl	a0,a1,a0
80000ef8:	00000593          	li	a1,0
80000efc:	cadff06f          	j	80000ba8 <__udivmoddi4+0x3c>
80000f00:	00000793          	li	a5,0
80000f04:	00000413          	li	s0,0
80000f08:	dadff06f          	j	80000cb4 <__udivmoddi4+0x148>
80000f0c:	04000593          	li	a1,64
80000f10:	40a585b3          	sub	a1,a1,a0
80000f14:	00160613          	addi	a2,a2,1
80000f18:	00b39433          	sll	s0,t2,a1
80000f1c:	00b715b3          	sll	a1,a4,a1
80000f20:	00c3d3b3          	srl	t2,t2,a2
80000f24:	0075e3b3          	or	t2,a1,t2
80000f28:	00c75733          	srl	a4,a4,a2
80000f2c:	d89ff06f          	j	80000cb4 <__udivmoddi4+0x148>

80000f30 <__udivdi3>:
80000f30:	00000713          	li	a4,0
80000f34:	c39ff06f          	j	80000b6c <__udivmoddi4>

80000f38 <__clzsi2>:
80000f38:	ffff0637          	lui	a2,0xffff0
80000f3c:	00c57633          	and	a2,a0,a2
80000f40:	00163613          	seqz	a2,a2
80000f44:	00461613          	slli	a2,a2,0x4
80000f48:	01000793          	li	a5,16
80000f4c:	40c787b3          	sub	a5,a5,a2
80000f50:	00010737          	lui	a4,0x10
80000f54:	00f557b3          	srl	a5,a0,a5
80000f58:	f0070713          	addi	a4,a4,-256 # ff00 <_entry_offset+0xff00>
80000f5c:	00e7f733          	and	a4,a5,a4
80000f60:	00173713          	seqz	a4,a4
80000f64:	00371713          	slli	a4,a4,0x3
80000f68:	00800693          	li	a3,8
80000f6c:	40e686b3          	sub	a3,a3,a4
80000f70:	00d7d7b3          	srl	a5,a5,a3
80000f74:	0f07f593          	andi	a1,a5,240
80000f78:	0015b593          	seqz	a1,a1
80000f7c:	00259593          	slli	a1,a1,0x2
80000f80:	00400693          	li	a3,4
80000f84:	40b686b3          	sub	a3,a3,a1
80000f88:	00d7d7b3          	srl	a5,a5,a3
80000f8c:	00c7f513          	andi	a0,a5,12
80000f90:	00153513          	seqz	a0,a0
80000f94:	00151513          	slli	a0,a0,0x1
80000f98:	00200313          	li	t1,2
80000f9c:	40a306b3          	sub	a3,t1,a0
80000fa0:	00d7d7b3          	srl	a5,a5,a3
80000fa4:	0017d693          	srli	a3,a5,0x1
80000fa8:	0016c693          	xori	a3,a3,1
80000fac:	00c70733          	add	a4,a4,a2
80000fb0:	0016f693          	andi	a3,a3,1
80000fb4:	00e585b3          	add	a1,a1,a4
80000fb8:	40f30333          	sub	t1,t1,a5
80000fbc:	40d006b3          	neg	a3,a3
80000fc0:	0066f6b3          	and	a3,a3,t1
80000fc4:	00b50533          	add	a0,a0,a1
80000fc8:	00a68533          	add	a0,a3,a0
80000fcc:	00008067          	ret

80000fd0 <__ctzsi2>:
80000fd0:	01051593          	slli	a1,a0,0x10
80000fd4:	0105d593          	srli	a1,a1,0x10
80000fd8:	0015b593          	seqz	a1,a1
80000fdc:	00459593          	slli	a1,a1,0x4
80000fe0:	00b557b3          	srl	a5,a0,a1
80000fe4:	0ff7f613          	zext.b	a2,a5
80000fe8:	00163613          	seqz	a2,a2
80000fec:	00361613          	slli	a2,a2,0x3
80000ff0:	00c7d7b3          	srl	a5,a5,a2
80000ff4:	00f7f693          	andi	a3,a5,15
80000ff8:	0016b693          	seqz	a3,a3
80000ffc:	00269693          	slli	a3,a3,0x2
80001000:	00d7d7b3          	srl	a5,a5,a3
80001004:	0037f713          	andi	a4,a5,3
80001008:	00173713          	seqz	a4,a4
8000100c:	00171713          	slli	a4,a4,0x1
80001010:	00e7d7b3          	srl	a5,a5,a4
80001014:	0017d513          	srli	a0,a5,0x1
80001018:	00b60633          	add	a2,a2,a1
8000101c:	0017f793          	andi	a5,a5,1
80001020:	00157593          	andi	a1,a0,1
80001024:	00200513          	li	a0,2
80001028:	40b50533          	sub	a0,a0,a1
8000102c:	00c686b3          	add	a3,a3,a2
80001030:	fff78793          	addi	a5,a5,-1
80001034:	00f577b3          	and	a5,a0,a5
80001038:	00d70533          	add	a0,a4,a3
8000103c:	00a78533          	add	a0,a5,a0
80001040:	00008067          	ret

80001044 <printf>:
80001044:	fdc10113          	addi	sp,sp,-36
80001048:	01010313          	addi	t1,sp,16
8000104c:	00b12823          	sw	a1,16(sp)
80001050:	00c12a23          	sw	a2,20(sp)
80001054:	00050593          	mv	a1,a0
80001058:	00030613          	mv	a2,t1
8000105c:	00000517          	auipc	a0,0x0
80001060:	83450513          	addi	a0,a0,-1996 # 80000890 <putch>
80001064:	00112623          	sw	ra,12(sp)
80001068:	00d12c23          	sw	a3,24(sp)
8000106c:	00e12e23          	sw	a4,28(sp)
80001070:	02f12023          	sw	a5,32(sp)
80001074:	00612023          	sw	t1,0(sp)
80001078:	010000ef          	jal	ra,80001088 <vprintf>
8000107c:	00c12083          	lw	ra,12(sp)
80001080:	02410113          	addi	sp,sp,36
80001084:	00008067          	ret

80001088 <vprintf>:
80001088:	f9c10113          	addi	sp,sp,-100
8000108c:	06112023          	sw	ra,96(sp)
80001090:	04812e23          	sw	s0,92(sp)
80001094:	04912c23          	sw	s1,88(sp)
80001098:	0005c783          	lbu	a5,0(a1)
8000109c:	00c12a23          	sw	a2,20(sp)
800010a0:	4a078863          	beqz	a5,80001550 <vprintf+0x4c8>
800010a4:	00050493          	mv	s1,a0
800010a8:	00058413          	mv	s0,a1
800010ac:	00012423          	sw	zero,8(sp)
800010b0:	00012823          	sw	zero,16(sp)
800010b4:	00000713          	li	a4,0
800010b8:	00078513          	mv	a0,a5
800010bc:	00912023          	sw	s1,0(sp)
800010c0:	0380006f          	j	800010f8 <vprintf+0x70>
800010c4:	00e12623          	sw	a4,12(sp)
800010c8:	1e071c63          	bnez	a4,800012c0 <vprintf+0x238>
800010cc:	00012783          	lw	a5,0(sp)
800010d0:	000780e7          	jalr	a5
800010d4:	00812783          	lw	a5,8(sp)
800010d8:	00c12703          	lw	a4,12(sp)
800010dc:	00812223          	sw	s0,4(sp)
800010e0:	00178793          	addi	a5,a5,1
800010e4:	00f12423          	sw	a5,8(sp)
800010e8:	00412783          	lw	a5,4(sp)
800010ec:	0017c503          	lbu	a0,1(a5)
800010f0:	00178413          	addi	s0,a5,1
800010f4:	06050463          	beqz	a0,8000115c <vprintf+0xd4>
800010f8:	02500793          	li	a5,37
800010fc:	fcf514e3          	bne	a0,a5,800010c4 <vprintf+0x3c>
80001100:	00173713          	seqz	a4,a4
80001104:	00e407b3          	add	a5,s0,a4
80001108:	00f12223          	sw	a5,4(sp)
8000110c:	00412783          	lw	a5,4(sp)
80001110:	02500713          	li	a4,37
80001114:	0007c783          	lbu	a5,0(a5)
80001118:	1ae78e63          	beq	a5,a4,800012d4 <vprintf+0x24c>
8000111c:	f9d78793          	addi	a5,a5,-99
80001120:	0ff7f793          	zext.b	a5,a5
80001124:	01200713          	li	a4,18
80001128:	02f76063          	bltu	a4,a5,80001148 <vprintf+0xc0>
8000112c:	00000717          	auipc	a4,0x0
80001130:	68870713          	addi	a4,a4,1672 # 800017b4 <mainargs+0x118>
80001134:	00279793          	slli	a5,a5,0x2
80001138:	00e787b3          	add	a5,a5,a4
8000113c:	0007a783          	lw	a5,0(a5)
80001140:	00e787b3          	add	a5,a5,a4
80001144:	00078067          	jr	a5
80001148:	00412783          	lw	a5,4(sp)
8000114c:	00100713          	li	a4,1
80001150:	0017c503          	lbu	a0,1(a5)
80001154:	00178413          	addi	s0,a5,1
80001158:	fa0510e3          	bnez	a0,800010f8 <vprintf+0x70>
8000115c:	06012083          	lw	ra,96(sp)
80001160:	05c12403          	lw	s0,92(sp)
80001164:	00812503          	lw	a0,8(sp)
80001168:	05812483          	lw	s1,88(sp)
8000116c:	06410113          	addi	sp,sp,100
80001170:	00008067          	ret
80001174:	01012703          	lw	a4,16(sp)
80001178:	00200793          	li	a5,2
8000117c:	40e7c663          	blt	a5,a4,80001588 <vprintf+0x500>
80001180:	01012703          	lw	a4,16(sp)
80001184:	38f70c63          	beq	a4,a5,8000151c <vprintf+0x494>
80001188:	01412703          	lw	a4,20(sp)
8000118c:	00000693          	li	a3,0
80001190:	00072783          	lw	a5,0(a4)
80001194:	00470713          	addi	a4,a4,4
80001198:	00e12a23          	sw	a4,20(sp)
8000119c:	00d7e733          	or	a4,a5,a3
800011a0:	14071463          	bnez	a4,800012e8 <vprintf+0x260>
800011a4:	00812783          	lw	a5,8(sp)
800011a8:	03000513          	li	a0,48
800011ac:	00178793          	addi	a5,a5,1
800011b0:	00f12423          	sw	a5,8(sp)
800011b4:	00012783          	lw	a5,0(sp)
800011b8:	000780e7          	jalr	a5
800011bc:	00012823          	sw	zero,16(sp)
800011c0:	00000713          	li	a4,0
800011c4:	f25ff06f          	j	800010e8 <vprintf+0x60>
800011c8:	01012783          	lw	a5,16(sp)
800011cc:	3a079a63          	bnez	a5,80001580 <vprintf+0x4f8>
800011d0:	01412783          	lw	a5,20(sp)
800011d4:	0007a403          	lw	s0,0(a5)
800011d8:	00478793          	addi	a5,a5,4
800011dc:	00f12623          	sw	a5,12(sp)
800011e0:	00044503          	lbu	a0,0(s0)
800011e4:	34050863          	beqz	a0,80001534 <vprintf+0x4ac>
800011e8:	00812483          	lw	s1,8(sp)
800011ec:	00012783          	lw	a5,0(sp)
800011f0:	00148493          	addi	s1,s1,1
800011f4:	000780e7          	jalr	a5
800011f8:	00812783          	lw	a5,8(sp)
800011fc:	40f487b3          	sub	a5,s1,a5
80001200:	00f407b3          	add	a5,s0,a5
80001204:	0007c503          	lbu	a0,0(a5)
80001208:	fe0512e3          	bnez	a0,800011ec <vprintf+0x164>
8000120c:	00c12783          	lw	a5,12(sp)
80001210:	00912423          	sw	s1,8(sp)
80001214:	00000713          	li	a4,0
80001218:	00f12a23          	sw	a5,20(sp)
8000121c:	ecdff06f          	j	800010e8 <vprintf+0x60>
80001220:	01012783          	lw	a5,16(sp)
80001224:	00100713          	li	a4,1
80001228:	00178793          	addi	a5,a5,1
8000122c:	00f12823          	sw	a5,16(sp)
80001230:	eb9ff06f          	j	800010e8 <vprintf+0x60>
80001234:	01012703          	lw	a4,16(sp)
80001238:	00200793          	li	a5,2
8000123c:	30e7ce63          	blt	a5,a4,80001558 <vprintf+0x4d0>
80001240:	01012703          	lw	a4,16(sp)
80001244:	2cf70063          	beq	a4,a5,80001504 <vprintf+0x47c>
80001248:	01412783          	lw	a5,20(sp)
8000124c:	0007a403          	lw	s0,0(a5)
80001250:	00478793          	addi	a5,a5,4
80001254:	00f12a23          	sw	a5,20(sp)
80001258:	41f45493          	srai	s1,s0,0x1f
8000125c:	00812783          	lw	a5,8(sp)
80001260:	00178793          	addi	a5,a5,1
80001264:	00f12623          	sw	a5,12(sp)
80001268:	1804c463          	bltz	s1,800013f0 <vprintf+0x368>
8000126c:	009467b3          	or	a5,s0,s1
80001270:	2c079a63          	bnez	a5,80001544 <vprintf+0x4bc>
80001274:	00012783          	lw	a5,0(sp)
80001278:	03000513          	li	a0,48
8000127c:	000780e7          	jalr	a5
80001280:	00c12783          	lw	a5,12(sp)
80001284:	00f12423          	sw	a5,8(sp)
80001288:	f35ff06f          	j	800011bc <vprintf+0x134>
8000128c:	01012783          	lw	a5,16(sp)
80001290:	2e079463          	bnez	a5,80001578 <vprintf+0x4f0>
80001294:	01412783          	lw	a5,20(sp)
80001298:	0007c503          	lbu	a0,0(a5)
8000129c:	00478413          	addi	s0,a5,4
800012a0:	00812783          	lw	a5,8(sp)
800012a4:	00178793          	addi	a5,a5,1
800012a8:	00f12423          	sw	a5,8(sp)
800012ac:	00012783          	lw	a5,0(sp)
800012b0:	000780e7          	jalr	a5
800012b4:	00000713          	li	a4,0
800012b8:	00812a23          	sw	s0,20(sp)
800012bc:	e2dff06f          	j	800010e8 <vprintf+0x60>
800012c0:	00812223          	sw	s0,4(sp)
800012c4:	00412783          	lw	a5,4(sp)
800012c8:	02500713          	li	a4,37
800012cc:	0007c783          	lbu	a5,0(a5)
800012d0:	e4e796e3          	bne	a5,a4,8000111c <vprintf+0x94>
800012d4:	00012783          	lw	a5,0(sp)
800012d8:	02500513          	li	a0,37
800012dc:	000780e7          	jalr	a5
800012e0:	00000713          	li	a4,0
800012e4:	e05ff06f          	j	800010e8 <vprintf+0x60>
800012e8:	ccccd737          	lui	a4,0xccccd
800012ec:	10000637          	lui	a2,0x10000
800012f0:	01810493          	addi	s1,sp,24
800012f4:	fff60093          	addi	ra,a2,-1 # fffffff <_entry_offset+0xfffffff>
800012f8:	00912823          	sw	s1,16(sp)
800012fc:	00000593          	li	a1,0
80001300:	ccd70613          	addi	a2,a4,-819 # cccccccd <_end+0x4ccb7ccd>
80001304:	ccc70393          	addi	t2,a4,-820
80001308:	00469713          	slli	a4,a3,0x4
8000130c:	01c7d513          	srli	a0,a5,0x1c
80001310:	00a76533          	or	a0,a4,a0
80001314:	00157533          	and	a0,a0,ra
80001318:	0017f733          	and	a4,a5,ra
8000131c:	0186d313          	srli	t1,a3,0x18
80001320:	00a70733          	add	a4,a4,a0
80001324:	00670733          	add	a4,a4,t1
80001328:	00500513          	li	a0,5
8000132c:	02a77733          	remu	a4,a4,a0
80001330:	00068313          	mv	t1,a3
80001334:	00148493          	addi	s1,s1,1
80001338:	00f12623          	sw	a5,12(sp)
8000133c:	00058413          	mv	s0,a1
80001340:	00158593          	addi	a1,a1,1
80001344:	40e78733          	sub	a4,a5,a4
80001348:	00e7b533          	sltu	a0,a5,a4
8000134c:	40a686b3          	sub	a3,a3,a0
80001350:	02c686b3          	mul	a3,a3,a2
80001354:	02770533          	mul	a0,a4,t2
80001358:	02c732b3          	mulhu	t0,a4,a2
8000135c:	00a68533          	add	a0,a3,a0
80001360:	02c70733          	mul	a4,a4,a2
80001364:	00550533          	add	a0,a0,t0
80001368:	01f51293          	slli	t0,a0,0x1f
8000136c:	00155693          	srli	a3,a0,0x1
80001370:	00175713          	srli	a4,a4,0x1
80001374:	00e2e733          	or	a4,t0,a4
80001378:	00271513          	slli	a0,a4,0x2
8000137c:	00e50533          	add	a0,a0,a4
80001380:	00151513          	slli	a0,a0,0x1
80001384:	40a78533          	sub	a0,a5,a0
80001388:	03050513          	addi	a0,a0,48
8000138c:	0ff57513          	zext.b	a0,a0
80001390:	fea48fa3          	sb	a0,-1(s1)
80001394:	00070793          	mv	a5,a4
80001398:	f60318e3          	bnez	t1,80001308 <vprintf+0x280>
8000139c:	00c12703          	lw	a4,12(sp)
800013a0:	00900313          	li	t1,9
800013a4:	f6e362e3          	bltu	t1,a4,80001308 <vprintf+0x280>
800013a8:	01012783          	lw	a5,16(sp)
800013ac:	00812623          	sw	s0,12(sp)
800013b0:	008784b3          	add	s1,a5,s0
800013b4:	00048413          	mv	s0,s1
800013b8:	00078493          	mv	s1,a5
800013bc:	00c0006f          	j	800013c8 <vprintf+0x340>
800013c0:	fff44503          	lbu	a0,-1(s0)
800013c4:	00070413          	mv	s0,a4
800013c8:	00012783          	lw	a5,0(sp)
800013cc:	000780e7          	jalr	a5
800013d0:	fff40713          	addi	a4,s0,-1
800013d4:	fe8496e3          	bne	s1,s0,800013c0 <vprintf+0x338>
800013d8:	00812783          	lw	a5,8(sp)
800013dc:	00c12403          	lw	s0,12(sp)
800013e0:	00178793          	addi	a5,a5,1
800013e4:	008787b3          	add	a5,a5,s0
800013e8:	00f12423          	sw	a5,8(sp)
800013ec:	dd1ff06f          	j	800011bc <vprintf+0x134>
800013f0:	008037b3          	snez	a5,s0
800013f4:	409004b3          	neg	s1,s1
800013f8:	40f484b3          	sub	s1,s1,a5
800013fc:	00012783          	lw	a5,0(sp)
80001400:	02d00513          	li	a0,45
80001404:	40800433          	neg	s0,s0
80001408:	000780e7          	jalr	a5
8000140c:	ccccd7b7          	lui	a5,0xccccd
80001410:	01810613          	addi	a2,sp,24
80001414:	10000337          	lui	t1,0x10000
80001418:	00c12823          	sw	a2,16(sp)
8000141c:	00000293          	li	t0,0
80001420:	fff30313          	addi	t1,t1,-1 # fffffff <_entry_offset+0xfffffff>
80001424:	00500093          	li	ra,5
80001428:	ccd78693          	addi	a3,a5,-819 # cccccccd <_end+0x4ccb7ccd>
8000142c:	ccc78393          	addi	t2,a5,-820
80001430:	00449793          	slli	a5,s1,0x4
80001434:	01c45713          	srli	a4,s0,0x1c
80001438:	00e7e733          	or	a4,a5,a4
8000143c:	00677733          	and	a4,a4,t1
80001440:	006477b3          	and	a5,s0,t1
80001444:	0184d593          	srli	a1,s1,0x18
80001448:	00e787b3          	add	a5,a5,a4
8000144c:	00b787b3          	add	a5,a5,a1
80001450:	0217f7b3          	remu	a5,a5,ra
80001454:	00160613          	addi	a2,a2,1
80001458:	00028593          	mv	a1,t0
8000145c:	00128293          	addi	t0,t0,1
80001460:	40f407b3          	sub	a5,s0,a5
80001464:	00f43533          	sltu	a0,s0,a5
80001468:	40a48533          	sub	a0,s1,a0
8000146c:	02d50533          	mul	a0,a0,a3
80001470:	027784b3          	mul	s1,a5,t2
80001474:	02d7b733          	mulhu	a4,a5,a3
80001478:	00950533          	add	a0,a0,s1
8000147c:	02d787b3          	mul	a5,a5,a3
80001480:	00e50533          	add	a0,a0,a4
80001484:	01f51713          	slli	a4,a0,0x1f
80001488:	00155493          	srli	s1,a0,0x1
8000148c:	0017d793          	srli	a5,a5,0x1
80001490:	00f767b3          	or	a5,a4,a5
80001494:	00279513          	slli	a0,a5,0x2
80001498:	00f50533          	add	a0,a0,a5
8000149c:	00151513          	slli	a0,a0,0x1
800014a0:	40a40533          	sub	a0,s0,a0
800014a4:	03050513          	addi	a0,a0,48
800014a8:	0ff57513          	zext.b	a0,a0
800014ac:	00078413          	mv	s0,a5
800014b0:	fea60fa3          	sb	a0,-1(a2)
800014b4:	0097e7b3          	or	a5,a5,s1
800014b8:	f6079ce3          	bnez	a5,80001430 <vprintf+0x3a8>
800014bc:	01012783          	lw	a5,16(sp)
800014c0:	00b12423          	sw	a1,8(sp)
800014c4:	00b78433          	add	s0,a5,a1
800014c8:	00040493          	mv	s1,s0
800014cc:	00078413          	mv	s0,a5
800014d0:	00c0006f          	j	800014dc <vprintf+0x454>
800014d4:	fff4c503          	lbu	a0,-1(s1)
800014d8:	00070493          	mv	s1,a4
800014dc:	00012783          	lw	a5,0(sp)
800014e0:	000780e7          	jalr	a5
800014e4:	fff48713          	addi	a4,s1,-1
800014e8:	fe9416e3          	bne	s0,s1,800014d4 <vprintf+0x44c>
800014ec:	00c12783          	lw	a5,12(sp)
800014f0:	00812583          	lw	a1,8(sp)
800014f4:	00178793          	addi	a5,a5,1
800014f8:	00b787b3          	add	a5,a5,a1
800014fc:	00f12423          	sw	a5,8(sp)
80001500:	cbdff06f          	j	800011bc <vprintf+0x134>
80001504:	01412783          	lw	a5,20(sp)
80001508:	0007a403          	lw	s0,0(a5)
8000150c:	0047a483          	lw	s1,4(a5)
80001510:	00878793          	addi	a5,a5,8
80001514:	00f12a23          	sw	a5,20(sp)
80001518:	d45ff06f          	j	8000125c <vprintf+0x1d4>
8000151c:	01412703          	lw	a4,20(sp)
80001520:	00072783          	lw	a5,0(a4)
80001524:	00472683          	lw	a3,4(a4)
80001528:	00870713          	addi	a4,a4,8
8000152c:	00e12a23          	sw	a4,20(sp)
80001530:	c6dff06f          	j	8000119c <vprintf+0x114>
80001534:	00c12783          	lw	a5,12(sp)
80001538:	00000713          	li	a4,0
8000153c:	00f12a23          	sw	a5,20(sp)
80001540:	ba9ff06f          	j	800010e8 <vprintf+0x60>
80001544:	00812783          	lw	a5,8(sp)
80001548:	00f12623          	sw	a5,12(sp)
8000154c:	ec1ff06f          	j	8000140c <vprintf+0x384>
80001550:	00012423          	sw	zero,8(sp)
80001554:	c09ff06f          	j	8000115c <vprintf+0xd4>
80001558:	03000613          	li	a2,48
8000155c:	00000597          	auipc	a1,0x0
80001560:	1f858593          	addi	a1,a1,504 # 80001754 <mainargs+0xb8>
80001564:	00000517          	auipc	a0,0x0
80001568:	23450513          	addi	a0,a0,564 # 80001798 <mainargs+0xfc>
8000156c:	ad9ff0ef          	jal	ra,80001044 <printf>
80001570:	00100513          	li	a0,1
80001574:	b28ff0ef          	jal	ra,8000089c <halt>
80001578:	02a00613          	li	a2,42
8000157c:	fe1ff06f          	j	8000155c <vprintf+0x4d4>
80001580:	02100613          	li	a2,33
80001584:	fd9ff06f          	j	8000155c <vprintf+0x4d4>
80001588:	04c00613          	li	a2,76
8000158c:	fd1ff06f          	j	8000155c <vprintf+0x4d4>
