
/home/meowth/ysyx/ysyx-workbench/am-kernels/tests/cpu-tests/build/flash1-riscv32-nemu.elf:     file format elf32-littleriscv


Disassembly of section .text:

80000000 <_start>:
80000000:	00000413          	li	s0,0
80000004:	00009117          	auipc	sp,0x9
80000008:	ffc10113          	addi	sp,sp,-4 # 80009000 <_end>
8000000c:	070000ef          	jal	ra,8000007c <_trm_init>

80000010 <main>:
80000010:	ff010113          	addi	sp,sp,-16
80000014:	00812423          	sw	s0,8(sp)
80000018:	30000437          	lui	s0,0x30000
8000001c:	00912223          	sw	s1,4(sp)
80000020:	01212023          	sw	s2,0(sp)
80000024:	00112623          	sw	ra,12(sp)
80000028:	00000917          	auipc	s2,0x0
8000002c:	4f090913          	addi	s2,s2,1264 # 80000518 <_etext>
80000030:	02840493          	addi	s1,s0,40 # 30000028 <_entry_offset+0x30000028>
80000034:	00042583          	lw	a1,0(s0)
80000038:	00090513          	mv	a0,s2
8000003c:	00440413          	addi	s0,s0,4
80000040:	05c000ef          	jal	ra,8000009c <printf>
80000044:	fe9418e3          	bne	s0,s1,80000034 <main+0x24>
80000048:	00c12083          	lw	ra,12(sp)
8000004c:	00812403          	lw	s0,8(sp)
80000050:	00412483          	lw	s1,4(sp)
80000054:	00012903          	lw	s2,0(sp)
80000058:	00000513          	li	a0,0
8000005c:	01010113          	addi	sp,sp,16
80000060:	00008067          	ret

80000064 <putch>:
80000064:	a00007b7          	lui	a5,0xa0000
80000068:	3ea78c23          	sb	a0,1016(a5) # a00003f8 <_end+0x1fff73f8>
8000006c:	00008067          	ret

80000070 <halt>:
80000070:	00050513          	mv	a0,a0
80000074:	00100073          	ebreak
80000078:	0000006f          	j	80000078 <halt+0x8>

8000007c <_trm_init>:
8000007c:	ff010113          	addi	sp,sp,-16
80000080:	00000517          	auipc	a0,0x0
80000084:	49c50513          	addi	a0,a0,1180 # 8000051c <mainargs>
80000088:	00112623          	sw	ra,12(sp)
8000008c:	f85ff0ef          	jal	ra,80000010 <main>
80000090:	00050513          	mv	a0,a0
80000094:	00100073          	ebreak
80000098:	0000006f          	j	80000098 <_trm_init+0x1c>

8000009c <printf>:
8000009c:	fc010113          	addi	sp,sp,-64
800000a0:	02410313          	addi	t1,sp,36
800000a4:	02b12223          	sw	a1,36(sp)
800000a8:	02c12423          	sw	a2,40(sp)
800000ac:	00050593          	mv	a1,a0
800000b0:	00030613          	mv	a2,t1
800000b4:	00000517          	auipc	a0,0x0
800000b8:	fb050513          	addi	a0,a0,-80 # 80000064 <putch>
800000bc:	00112e23          	sw	ra,28(sp)
800000c0:	02d12623          	sw	a3,44(sp)
800000c4:	02e12823          	sw	a4,48(sp)
800000c8:	02f12a23          	sw	a5,52(sp)
800000cc:	03012c23          	sw	a6,56(sp)
800000d0:	03112e23          	sw	a7,60(sp)
800000d4:	00612623          	sw	t1,12(sp)
800000d8:	010000ef          	jal	ra,800000e8 <vprintf>
800000dc:	01c12083          	lw	ra,28(sp)
800000e0:	04010113          	addi	sp,sp,64
800000e4:	00008067          	ret

800000e8 <vprintf>:
800000e8:	f7010113          	addi	sp,sp,-144
800000ec:	08112623          	sw	ra,140(sp)
800000f0:	08812423          	sw	s0,136(sp)
800000f4:	08912223          	sw	s1,132(sp)
800000f8:	09212023          	sw	s2,128(sp)
800000fc:	07312e23          	sw	s3,124(sp)
80000100:	07412c23          	sw	s4,120(sp)
80000104:	07512a23          	sw	s5,116(sp)
80000108:	07612823          	sw	s6,112(sp)
8000010c:	07712623          	sw	s7,108(sp)
80000110:	07812423          	sw	s8,104(sp)
80000114:	07912223          	sw	s9,100(sp)
80000118:	07a12023          	sw	s10,96(sp)
8000011c:	05b12e23          	sw	s11,92(sp)
80000120:	0005c783          	lbu	a5,0(a1)
80000124:	3a078a63          	beqz	a5,800004d8 <vprintf+0x3f0>
80000128:	ccccdc37          	lui	s8,0xccccd
8000012c:	100009b7          	lui	s3,0x10000
80000130:	ccdc0493          	addi	s1,s8,-819 # cccccccd <_end+0x4ccc3ccd>
80000134:	00058413          	mv	s0,a1
80000138:	00050a13          	mv	s4,a0
8000013c:	00060a93          	mv	s5,a2
80000140:	00000913          	li	s2,0
80000144:	00000d13          	li	s10,0
80000148:	00000d93          	li	s11,0
8000014c:	02500b93          	li	s7,37
80000150:	00000c97          	auipc	s9,0x0
80000154:	46cc8c93          	addi	s9,s9,1132 # 800005bc <mainargs+0xa0>
80000158:	01010b13          	addi	s6,sp,16
8000015c:	fff98993          	addi	s3,s3,-1 # fffffff <_entry_offset+0xfffffff>
80000160:	cccc0c13          	addi	s8,s8,-820
80000164:	07778063          	beq	a5,s7,800001c4 <vprintf+0xdc>
80000168:	060d9263          	bnez	s11,800001cc <vprintf+0xe4>
8000016c:	00078513          	mv	a0,a5
80000170:	000a00e7          	jalr	s4
80000174:	00190913          	addi	s2,s2,1
80000178:	00144783          	lbu	a5,1(s0)
8000017c:	00140413          	addi	s0,s0,1
80000180:	fe0792e3          	bnez	a5,80000164 <vprintf+0x7c>
80000184:	08c12083          	lw	ra,140(sp)
80000188:	08812403          	lw	s0,136(sp)
8000018c:	08412483          	lw	s1,132(sp)
80000190:	07c12983          	lw	s3,124(sp)
80000194:	07812a03          	lw	s4,120(sp)
80000198:	07412a83          	lw	s5,116(sp)
8000019c:	07012b03          	lw	s6,112(sp)
800001a0:	06c12b83          	lw	s7,108(sp)
800001a4:	06812c03          	lw	s8,104(sp)
800001a8:	06412c83          	lw	s9,100(sp)
800001ac:	06012d03          	lw	s10,96(sp)
800001b0:	05c12d83          	lw	s11,92(sp)
800001b4:	00090513          	mv	a0,s2
800001b8:	08012903          	lw	s2,128(sp)
800001bc:	09010113          	addi	sp,sp,144
800001c0:	00008067          	ret
800001c4:	001dbd93          	seqz	s11,s11
800001c8:	01b40433          	add	s0,s0,s11
800001cc:	00044783          	lbu	a5,0(s0)
800001d0:	11778663          	beq	a5,s7,800002dc <vprintf+0x1f4>
800001d4:	f9d78793          	addi	a5,a5,-99
800001d8:	0ff7f793          	zext.b	a5,a5
800001dc:	01200713          	li	a4,18
800001e0:	00f76c63          	bltu	a4,a5,800001f8 <vprintf+0x110>
800001e4:	00279793          	slli	a5,a5,0x2
800001e8:	019787b3          	add	a5,a5,s9
800001ec:	0007a783          	lw	a5,0(a5)
800001f0:	019787b3          	add	a5,a5,s9
800001f4:	00078067          	jr	a5
800001f8:	00100d93          	li	s11,1
800001fc:	f7dff06f          	j	80000178 <vprintf+0x90>
80000200:	00200793          	li	a5,2
80000204:	31a7c663          	blt	a5,s10,80000510 <vprintf+0x428>
80000208:	28fd0863          	beq	s10,a5,80000498 <vprintf+0x3b0>
8000020c:	000aa703          	lw	a4,0(s5)
80000210:	00000693          	li	a3,0
80000214:	004a8a93          	addi	s5,s5,4
80000218:	00d767b3          	or	a5,a4,a3
8000021c:	0c079863          	bnez	a5,800002ec <vprintf+0x204>
80000220:	03000513          	li	a0,48
80000224:	00190913          	addi	s2,s2,1
80000228:	000a00e7          	jalr	s4
8000022c:	00000d13          	li	s10,0
80000230:	00000d93          	li	s11,0
80000234:	f45ff06f          	j	80000178 <vprintf+0x90>
80000238:	2c0d1863          	bnez	s10,80000508 <vprintf+0x420>
8000023c:	000aa783          	lw	a5,0(s5)
80000240:	004a8a93          	addi	s5,s5,4
80000244:	0007c503          	lbu	a0,0(a5)
80000248:	00f12623          	sw	a5,12(sp)
8000024c:	26050e63          	beqz	a0,800004c8 <vprintf+0x3e0>
80000250:	00090d93          	mv	s11,s2
80000254:	000a00e7          	jalr	s4
80000258:	00c12703          	lw	a4,12(sp)
8000025c:	001d8d93          	addi	s11,s11,1
80000260:	412d87b3          	sub	a5,s11,s2
80000264:	00f707b3          	add	a5,a4,a5
80000268:	0007c503          	lbu	a0,0(a5)
8000026c:	fe0514e3          	bnez	a0,80000254 <vprintf+0x16c>
80000270:	000d8913          	mv	s2,s11
80000274:	00000d93          	li	s11,0
80000278:	f01ff06f          	j	80000178 <vprintf+0x90>
8000027c:	001d0d13          	addi	s10,s10,1
80000280:	00100d93          	li	s11,1
80000284:	ef5ff06f          	j	80000178 <vprintf+0x90>
80000288:	00200793          	li	a5,2
8000028c:	25a7ca63          	blt	a5,s10,800004e0 <vprintf+0x3f8>
80000290:	22fd0063          	beq	s10,a5,800004b0 <vprintf+0x3c8>
80000294:	000aad83          	lw	s11,0(s5)
80000298:	004a8a93          	addi	s5,s5,4
8000029c:	41fdd713          	srai	a4,s11,0x1f
800002a0:	00190d13          	addi	s10,s2,1
800002a4:	10074a63          	bltz	a4,800003b8 <vprintf+0x2d0>
800002a8:	00ede7b3          	or	a5,s11,a4
800002ac:	22079263          	bnez	a5,800004d0 <vprintf+0x3e8>
800002b0:	03000513          	li	a0,48
800002b4:	000a00e7          	jalr	s4
800002b8:	000d0913          	mv	s2,s10
800002bc:	f71ff06f          	j	8000022c <vprintf+0x144>
800002c0:	240d1063          	bnez	s10,80000500 <vprintf+0x418>
800002c4:	000ac503          	lbu	a0,0(s5)
800002c8:	00190913          	addi	s2,s2,1
800002cc:	004a8a93          	addi	s5,s5,4
800002d0:	000a00e7          	jalr	s4
800002d4:	00000d93          	li	s11,0
800002d8:	ea1ff06f          	j	80000178 <vprintf+0x90>
800002dc:	02500513          	li	a0,37
800002e0:	000a00e7          	jalr	s4
800002e4:	00000d93          	li	s11,0
800002e8:	e91ff06f          	j	80000178 <vprintf+0x90>
800002ec:	000b0613          	mv	a2,s6
800002f0:	00000593          	li	a1,0
800002f4:	00500813          	li	a6,5
800002f8:	00900893          	li	a7,9
800002fc:	00469793          	slli	a5,a3,0x4
80000300:	01c75513          	srli	a0,a4,0x1c
80000304:	00a7e533          	or	a0,a5,a0
80000308:	01357533          	and	a0,a0,s3
8000030c:	013777b3          	and	a5,a4,s3
80000310:	0186d313          	srli	t1,a3,0x18
80000314:	00a787b3          	add	a5,a5,a0
80000318:	006787b3          	add	a5,a5,t1
8000031c:	0307f7b3          	remu	a5,a5,a6
80000320:	00068313          	mv	t1,a3
80000324:	00160613          	addi	a2,a2,1
80000328:	00058d13          	mv	s10,a1
8000032c:	00070e13          	mv	t3,a4
80000330:	00158593          	addi	a1,a1,1
80000334:	40f707b3          	sub	a5,a4,a5
80000338:	00f73533          	sltu	a0,a4,a5
8000033c:	40a686b3          	sub	a3,a3,a0
80000340:	03878eb3          	mul	t4,a5,s8
80000344:	029686b3          	mul	a3,a3,s1
80000348:	0297b533          	mulhu	a0,a5,s1
8000034c:	01d686b3          	add	a3,a3,t4
80000350:	029787b3          	mul	a5,a5,s1
80000354:	00a686b3          	add	a3,a3,a0
80000358:	01f69513          	slli	a0,a3,0x1f
8000035c:	0016d693          	srli	a3,a3,0x1
80000360:	0017d793          	srli	a5,a5,0x1
80000364:	00f567b3          	or	a5,a0,a5
80000368:	00279513          	slli	a0,a5,0x2
8000036c:	00f50533          	add	a0,a0,a5
80000370:	00151513          	slli	a0,a0,0x1
80000374:	40a70533          	sub	a0,a4,a0
80000378:	03050513          	addi	a0,a0,48
8000037c:	0ff57513          	zext.b	a0,a0
80000380:	fea60fa3          	sb	a0,-1(a2)
80000384:	00078713          	mv	a4,a5
80000388:	f6031ae3          	bnez	t1,800002fc <vprintf+0x214>
8000038c:	f7c8e8e3          	bltu	a7,t3,800002fc <vprintf+0x214>
80000390:	01ab0db3          	add	s11,s6,s10
80000394:	00c0006f          	j	800003a0 <vprintf+0x2b8>
80000398:	fffdc503          	lbu	a0,-1(s11)
8000039c:	00078d93          	mv	s11,a5
800003a0:	000a00e7          	jalr	s4
800003a4:	fffd8793          	addi	a5,s11,-1
800003a8:	ffbb18e3          	bne	s6,s11,80000398 <vprintf+0x2b0>
800003ac:	00190913          	addi	s2,s2,1
800003b0:	01a90933          	add	s2,s2,s10
800003b4:	e79ff06f          	j	8000022c <vprintf+0x144>
800003b8:	01b037b3          	snez	a5,s11
800003bc:	40e00733          	neg	a4,a4
800003c0:	40f70733          	sub	a4,a4,a5
800003c4:	02d00513          	li	a0,45
800003c8:	00e12623          	sw	a4,12(sp)
800003cc:	000a00e7          	jalr	s4
800003d0:	00c12703          	lw	a4,12(sp)
800003d4:	41b00db3          	neg	s11,s11
800003d8:	000b0693          	mv	a3,s6
800003dc:	00000613          	li	a2,0
800003e0:	00500593          	li	a1,5
800003e4:	00471793          	slli	a5,a4,0x4
800003e8:	01cdd513          	srli	a0,s11,0x1c
800003ec:	00a7e533          	or	a0,a5,a0
800003f0:	01357533          	and	a0,a0,s3
800003f4:	013df7b3          	and	a5,s11,s3
800003f8:	01875813          	srli	a6,a4,0x18
800003fc:	00a787b3          	add	a5,a5,a0
80000400:	010787b3          	add	a5,a5,a6
80000404:	02b7f7b3          	remu	a5,a5,a1
80000408:	00168693          	addi	a3,a3,1
8000040c:	00060913          	mv	s2,a2
80000410:	00160613          	addi	a2,a2,1
80000414:	40fd87b3          	sub	a5,s11,a5
80000418:	00fdb533          	sltu	a0,s11,a5
8000041c:	40a70733          	sub	a4,a4,a0
80000420:	03878833          	mul	a6,a5,s8
80000424:	02970733          	mul	a4,a4,s1
80000428:	0297b533          	mulhu	a0,a5,s1
8000042c:	01070733          	add	a4,a4,a6
80000430:	029787b3          	mul	a5,a5,s1
80000434:	00a70733          	add	a4,a4,a0
80000438:	01f71513          	slli	a0,a4,0x1f
8000043c:	00175713          	srli	a4,a4,0x1
80000440:	0017d793          	srli	a5,a5,0x1
80000444:	00f567b3          	or	a5,a0,a5
80000448:	00279513          	slli	a0,a5,0x2
8000044c:	00f50533          	add	a0,a0,a5
80000450:	00151513          	slli	a0,a0,0x1
80000454:	40ad8533          	sub	a0,s11,a0
80000458:	03050513          	addi	a0,a0,48
8000045c:	0ff57513          	zext.b	a0,a0
80000460:	00078d93          	mv	s11,a5
80000464:	fea68fa3          	sb	a0,-1(a3)
80000468:	00e7e7b3          	or	a5,a5,a4
8000046c:	f6079ce3          	bnez	a5,800003e4 <vprintf+0x2fc>
80000470:	012b0db3          	add	s11,s6,s2
80000474:	00c0006f          	j	80000480 <vprintf+0x398>
80000478:	fffdc503          	lbu	a0,-1(s11)
8000047c:	00078d93          	mv	s11,a5
80000480:	000a00e7          	jalr	s4
80000484:	fffd8793          	addi	a5,s11,-1
80000488:	ffbb18e3          	bne	s6,s11,80000478 <vprintf+0x390>
8000048c:	001d0d13          	addi	s10,s10,1
80000490:	012d0933          	add	s2,s10,s2
80000494:	d99ff06f          	j	8000022c <vprintf+0x144>
80000498:	007a8a93          	addi	s5,s5,7
8000049c:	ff8afa93          	andi	s5,s5,-8
800004a0:	000aa703          	lw	a4,0(s5)
800004a4:	004aa683          	lw	a3,4(s5)
800004a8:	008a8a93          	addi	s5,s5,8
800004ac:	d6dff06f          	j	80000218 <vprintf+0x130>
800004b0:	007a8a93          	addi	s5,s5,7
800004b4:	ff8afa93          	andi	s5,s5,-8
800004b8:	000aad83          	lw	s11,0(s5)
800004bc:	004aa703          	lw	a4,4(s5)
800004c0:	008a8a93          	addi	s5,s5,8
800004c4:	dddff06f          	j	800002a0 <vprintf+0x1b8>
800004c8:	00000d93          	li	s11,0
800004cc:	cadff06f          	j	80000178 <vprintf+0x90>
800004d0:	00090d13          	mv	s10,s2
800004d4:	f05ff06f          	j	800003d8 <vprintf+0x2f0>
800004d8:	00000913          	li	s2,0
800004dc:	ca9ff06f          	j	80000184 <vprintf+0x9c>
800004e0:	03000613          	li	a2,48
800004e4:	00000597          	auipc	a1,0x0
800004e8:	07858593          	addi	a1,a1,120 # 8000055c <mainargs+0x40>
800004ec:	00000517          	auipc	a0,0x0
800004f0:	0b450513          	addi	a0,a0,180 # 800005a0 <mainargs+0x84>
800004f4:	ba9ff0ef          	jal	ra,8000009c <printf>
800004f8:	00100513          	li	a0,1
800004fc:	b75ff0ef          	jal	ra,80000070 <halt>
80000500:	02a00613          	li	a2,42
80000504:	fe1ff06f          	j	800004e4 <vprintf+0x3fc>
80000508:	02100613          	li	a2,33
8000050c:	fd9ff06f          	j	800004e4 <vprintf+0x3fc>
80000510:	04c00613          	li	a2,76
80000514:	fd1ff06f          	j	800004e4 <vprintf+0x3fc>
