
/home/meowth/ysyx/ysyx-workbench/am-kernels/tests/cpu-tests/build/pascal-riscv32e-ysyx-soc.elf:     file format elf32-littleriscv


Disassembly of section .text.bootloader:

30000000 <_start>:
30000000:	00000413          	li	s0,0
30000004:	df002117          	auipc	sp,0xdf002
30000008:	efc10113          	addi	sp,sp,-260 # f001f00 <_stack_pointer>
3000000c:	004000ef          	jal	ra,30000010 <bootloader_load>

30000010 <bootloader_load>:
30000010:	ff410113          	addi	sp,sp,-12
30000014:	50000797          	auipc	a5,0x50000
30000018:	1d878793          	addi	a5,a5,472 # 800001ec <a>
3000001c:	50000717          	auipc	a4,0x50000
30000020:	fe470713          	addi	a4,a4,-28 # 80000000 <check>
30000024:	00112423          	sw	ra,8(sp)
30000028:	40e78633          	sub	a2,a5,a4
3000002c:	02e78263          	beq	a5,a4,30000050 <bootloader_load+0x40>
30000030:	00000797          	auipc	a5,0x0
30000034:	05078793          	addi	a5,a5,80 # 30000080 <_ebootloader_load>
30000038:	00f60633          	add	a2,a2,a5
3000003c:	0007c683          	lbu	a3,0(a5)
30000040:	00178793          	addi	a5,a5,1
30000044:	00170713          	addi	a4,a4,1
30000048:	fed70fa3          	sb	a3,-1(a4)
3000004c:	fec798e3          	bne	a5,a2,3000003c <bootloader_load+0x2c>
30000050:	50000697          	auipc	a3,0x50000
30000054:	21868693          	addi	a3,a3,536 # 80000268 <_bss_end>
30000058:	50000797          	auipc	a5,0x50000
3000005c:	19478793          	addi	a5,a5,404 # 800001ec <a>
30000060:	40f68733          	sub	a4,a3,a5
30000064:	00f68a63          	beq	a3,a5,30000078 <bootloader_load+0x68>
30000068:	00e78733          	add	a4,a5,a4
3000006c:	00078023          	sb	zero,0(a5)
30000070:	00178793          	addi	a5,a5,1
30000074:	fef71ce3          	bne	a4,a5,3000006c <bootloader_load+0x5c>
30000078:	50000097          	auipc	ra,0x50000
3000007c:	07c080e7          	jalr	124(ra) # 800000f4 <_trm_init>

Disassembly of section .text:

80000000 <check>:
80000000:	00050463          	beqz	a0,80000008 <check+0x8>
80000004:	00008067          	ret
80000008:	ff410113          	addi	sp,sp,-12
8000000c:	00100513          	li	a0,1
80000010:	00112423          	sw	ra,8(sp)
80000014:	0d8000ef          	jal	ra,800000ec <halt>

80000018 <main>:
80000018:	ff410113          	addi	sp,sp,-12
8000001c:	00112423          	sw	ra,8(sp)
80000020:	00812223          	sw	s0,4(sp)
80000024:	00912023          	sw	s1,0(sp)
80000028:	00000517          	auipc	a0,0x0
8000002c:	1c450513          	addi	a0,a0,452 # 800001ec <a>
80000030:	00100793          	li	a5,1
80000034:	00f52223          	sw	a5,4(a0)
80000038:	00f52023          	sw	a5,0(a0)
8000003c:	00000597          	auipc	a1,0x0
80000040:	1b858593          	addi	a1,a1,440 # 800001f4 <a+0x8>
80000044:	00000297          	auipc	t0,0x0
80000048:	22428293          	addi	t0,t0,548 # 80000268 <_bss_end>
8000004c:	00100713          	li	a4,1
80000050:	00100313          	li	t1,1
80000054:	00000417          	auipc	s0,0x0
80000058:	19c40413          	addi	s0,s0,412 # 800001f0 <a+0x4>
8000005c:	00040793          	mv	a5,s0
80000060:	00100693          	li	a3,1
80000064:	0080006f          	j	8000006c <main+0x54>
80000068:	0007a703          	lw	a4,0(a5)
8000006c:	00d70633          	add	a2,a4,a3
80000070:	00c7a023          	sw	a2,0(a5)
80000074:	00478793          	addi	a5,a5,4
80000078:	00070693          	mv	a3,a4
8000007c:	feb796e3          	bne	a5,a1,80000068 <main+0x50>
80000080:	0067a023          	sw	t1,0(a5)
80000084:	00478593          	addi	a1,a5,4
80000088:	00558663          	beq	a1,t0,80000094 <main+0x7c>
8000008c:	00452703          	lw	a4,4(a0)
80000090:	fc5ff06f          	j	80000054 <main+0x3c>
80000094:	00000497          	auipc	s1,0x0
80000098:	0dc48493          	addi	s1,s1,220 # 80000170 <ans>
8000009c:	00100713          	li	a4,1
800000a0:	00c0006f          	j	800000ac <main+0x94>
800000a4:	00042703          	lw	a4,0(s0)
800000a8:	00440413          	addi	s0,s0,4
800000ac:	0004a503          	lw	a0,0(s1)
800000b0:	00448493          	addi	s1,s1,4
800000b4:	40e50533          	sub	a0,a0,a4
800000b8:	00153513          	seqz	a0,a0
800000bc:	f45ff0ef          	jal	ra,80000000 <check>
800000c0:	00000797          	auipc	a5,0x0
800000c4:	12c78793          	addi	a5,a5,300 # 800001ec <a>
800000c8:	fc979ee3          	bne	a5,s1,800000a4 <main+0x8c>
800000cc:	00100513          	li	a0,1
800000d0:	f31ff0ef          	jal	ra,80000000 <check>
800000d4:	00812083          	lw	ra,8(sp)
800000d8:	00412403          	lw	s0,4(sp)
800000dc:	00012483          	lw	s1,0(sp)
800000e0:	00000513          	li	a0,0
800000e4:	00c10113          	addi	sp,sp,12
800000e8:	00008067          	ret

800000ec <halt>:
800000ec:	00100073          	ebreak
800000f0:	0000006f          	j	800000f0 <halt+0x4>

800000f4 <_trm_init>:
800000f4:	ff410113          	addi	sp,sp,-12
800000f8:	00112423          	sw	ra,8(sp)
800000fc:	100007b7          	lui	a5,0x10000
80000100:	f8000713          	li	a4,-128
80000104:	00e781a3          	sb	a4,3(a5) # 10000003 <_stack_pointer+0xffe103>
80000108:	00100713          	li	a4,1
8000010c:	00e78023          	sb	a4,0(a5)
80000110:	000780a3          	sb	zero,1(a5)
80000114:	00300713          	li	a4,3
80000118:	00e781a3          	sb	a4,3(a5)
8000011c:	00000517          	auipc	a0,0x0
80000120:	01450513          	addi	a0,a0,20 # 80000130 <_etext>
80000124:	ef5ff0ef          	jal	ra,80000018 <main>
80000128:	00100073          	ebreak
8000012c:	0000006f          	j	8000012c <_trm_init+0x38>
